
code.elf: formato do arquivo elf32-avr


Desmontagem da seção .text:

00000000 <__vectors>:
       0:	0c 94 24 01 	jmp	0x248	; 0x248 <__ctors_end>
       4:	0c 94 41 01 	jmp	0x282	; 0x282 <__bad_interrupt>
       8:	0c 94 41 01 	jmp	0x282	; 0x282 <__bad_interrupt>
       c:	0c 94 41 01 	jmp	0x282	; 0x282 <__bad_interrupt>
      10:	0c 94 41 01 	jmp	0x282	; 0x282 <__bad_interrupt>
      14:	0c 94 41 01 	jmp	0x282	; 0x282 <__bad_interrupt>
      18:	0c 94 41 01 	jmp	0x282	; 0x282 <__bad_interrupt>
      1c:	0c 94 41 01 	jmp	0x282	; 0x282 <__bad_interrupt>
      20:	0c 94 41 01 	jmp	0x282	; 0x282 <__bad_interrupt>
      24:	0c 94 41 01 	jmp	0x282	; 0x282 <__bad_interrupt>
      28:	0c 94 41 01 	jmp	0x282	; 0x282 <__bad_interrupt>
      2c:	0c 94 10 04 	jmp	0x820	; 0x820 <__vector_11>
      30:	0c 94 41 01 	jmp	0x282	; 0x282 <__bad_interrupt>
      34:	0c 94 41 01 	jmp	0x282	; 0x282 <__bad_interrupt>
      38:	0c 94 41 01 	jmp	0x282	; 0x282 <__bad_interrupt>
      3c:	0c 94 41 01 	jmp	0x282	; 0x282 <__bad_interrupt>
      40:	0c 94 41 01 	jmp	0x282	; 0x282 <__bad_interrupt>
      44:	0c 94 41 01 	jmp	0x282	; 0x282 <__bad_interrupt>
      48:	0c 94 41 01 	jmp	0x282	; 0x282 <__bad_interrupt>
      4c:	0c 94 41 01 	jmp	0x282	; 0x282 <__bad_interrupt>
      50:	0c 94 41 01 	jmp	0x282	; 0x282 <__bad_interrupt>
      54:	0c 94 41 01 	jmp	0x282	; 0x282 <__bad_interrupt>
      58:	0c 94 41 01 	jmp	0x282	; 0x282 <__bad_interrupt>
      5c:	0c 94 41 01 	jmp	0x282	; 0x282 <__bad_interrupt>
      60:	0c 94 41 01 	jmp	0x282	; 0x282 <__bad_interrupt>
      64:	0c 94 41 01 	jmp	0x282	; 0x282 <__bad_interrupt>

00000068 <CHARSET>:
      68:	00 00 00 00 00 00 00 5f 00 00 00 07 00 07 00 14     ......._........
      78:	7f 14 7f 14 24 2a 7f 2a 12 23 13 08 64 62 36 49     ....$*.*.#..db6I
      88:	55 22 50 00 05 03 00 00 00 1c 22 41 00 00 41 22     U"P......."A..A"
      98:	1c 00 14 08 3e 08 14 08 08 3e 08 08 00 50 30 00     ....>....>...P0.
      a8:	00 08 08 08 08 08 00 60 60 00 00 20 10 08 04 02     .......``.. ....
      b8:	3e 51 49 45 3e 00 42 7f 40 00 42 61 51 49 46 21     >QIE>.B.@.BaQIF!
      c8:	41 45 4b 31 18 14 12 7f 10 27 45 45 45 39 3c 4a     AEK1.....'EEE9<J
      d8:	49 49 30 01 71 09 05 03 36 49 49 49 36 06 49 49     II0.q...6III6.II
      e8:	29 1e 00 36 36 00 00 00 56 36 00 00 08 14 22 41     )..66...V6...."A
      f8:	00 14 14 14 14 14 00 41 22 14 08 02 01 51 09 06     .......A"....Q..
     108:	32 49 79 41 3e 7e 11 11 11 7e 7f 49 49 49 36 3e     2IyA>~...~.III6>
     118:	41 41 41 22 7f 41 41 22 1c 7f 49 49 49 41 7f 09     AAA".AA"..IIIA..
     128:	09 09 01 3e 41 49 49 7a 7f 08 08 08 7f 00 41 7f     ...>AIIz......A.
     138:	41 00 20 40 41 3f 01 7f 08 14 22 41 7f 40 40 40     A. @A?...."A.@@@
     148:	40 7f 02 0c 02 7f 7f 04 08 10 7f 3e 41 41 41 3e     @..........>AAA>
     158:	7f 09 09 09 06 3e 41 51 21 5e 7f 09 19 29 46 46     .....>AQ!^...)FF
     168:	49 49 49 31 01 01 7f 01 01 3f 40 40 40 3f 1f 20     III1.....?@@@?. 
     178:	40 20 1f 3f 40 38 40 3f 63 14 08 14 63 07 08 70     @ .?@8@?c...c..p
     188:	08 07 61 51 49 45 43 00 7f 41 41 00 02 04 08 10     ..aQIEC..AA.....
     198:	20 00 41 41 7f 00 04 02 01 02 04 40 40 40 40 40      .AA.......@@@@@
     1a8:	00 01 02 04 00 20 54 54 54 78 7f 48 44 44 38 38     ..... TTTx.HDD88
     1b8:	44 44 44 20 38 44 44 48 7f 38 54 54 54 18 08 7e     DDD 8DDH.8TTT..~
     1c8:	09 01 02 0c 52 52 52 3e 7f 08 04 04 78 00 44 7d     ....RRR>....x.D}
     1d8:	40 00 20 40 44 3d 00 7f 10 28 44 00 00 41 7f 40     @. @D=...(D..A.@
     1e8:	00 7c 04 18 04 78 7c 08 04 04 78 38 44 44 44 38     .|...x|...x8DDD8
     1f8:	7c 14 14 14 08 08 14 14 18 7c 7c 08 04 04 08 48     |........||....H
     208:	54 54 54 20 04 3f 44 40 20 3c 40 40 20 7c 1c 20     TTT .?D@ <@@ |. 
     218:	40 20 1c 3c 40 30 40 3c 44 28 10 28 44 0c 50 50     @ .<@0@<D(.(D.PP
     228:	50 3c 44 64 54 4c 44 00 08 36 41 00 00 00 7f 00     P<DdTLD..6A.....
     238:	00 00 41 36 08 00 10 08 08 10 08 00 00 00 00 00     ..A6............

00000248 <__ctors_end>:
     248:	11 24       	eor	r1, r1
     24a:	1f be       	out	0x3f, r1	; 63
     24c:	cf ef       	ldi	r28, 0xFF	; 255
     24e:	d8 e0       	ldi	r29, 0x08	; 8
     250:	de bf       	out	0x3e, r29	; 62
     252:	cd bf       	out	0x3d, r28	; 61

00000254 <__do_copy_data>:
     254:	11 e0       	ldi	r17, 0x01	; 1
     256:	a0 e0       	ldi	r26, 0x00	; 0
     258:	b1 e0       	ldi	r27, 0x01	; 1
     25a:	ec ef       	ldi	r30, 0xFC	; 252
     25c:	fc e1       	ldi	r31, 0x1C	; 28
     25e:	02 c0       	rjmp	.+4      	; 0x264 <__do_copy_data+0x10>
     260:	05 90       	lpm	r0, Z+
     262:	0d 92       	st	X+, r0
     264:	a8 31       	cpi	r26, 0x18	; 24
     266:	b1 07       	cpc	r27, r17
     268:	d9 f7       	brne	.-10     	; 0x260 <__do_copy_data+0xc>

0000026a <__do_clear_bss>:
     26a:	23 e0       	ldi	r18, 0x03	; 3
     26c:	a8 e1       	ldi	r26, 0x18	; 24
     26e:	b1 e0       	ldi	r27, 0x01	; 1
     270:	01 c0       	rjmp	.+2      	; 0x274 <.do_clear_bss_start>

00000272 <.do_clear_bss_loop>:
     272:	1d 92       	st	X+, r1

00000274 <.do_clear_bss_start>:
     274:	aa 36       	cpi	r26, 0x6A	; 106
     276:	b2 07       	cpc	r27, r18
     278:	e1 f7       	brne	.-8      	; 0x272 <.do_clear_bss_loop>
     27a:	0e 94 25 07 	call	0xe4a	; 0xe4a <main>
     27e:	0c 94 7c 0e 	jmp	0x1cf8	; 0x1cf8 <_exit>

00000282 <__bad_interrupt>:
     282:	0c 94 00 00 	jmp	0	; 0x0 <__vectors>

00000286 <desenhaTela>:
     286:	4f 92       	push	r4
     288:	5f 92       	push	r5
     28a:	6f 92       	push	r6
     28c:	7f 92       	push	r7
     28e:	8f 92       	push	r8
     290:	9f 92       	push	r9
     292:	af 92       	push	r10
     294:	bf 92       	push	r11
     296:	cf 92       	push	r12
     298:	df 92       	push	r13
     29a:	ef 92       	push	r14
     29c:	ff 92       	push	r15
     29e:	0f 93       	push	r16
     2a0:	1f 93       	push	r17
     2a2:	cf 93       	push	r28
     2a4:	df 93       	push	r29
     2a6:	cd b7       	in	r28, 0x3d	; 61
     2a8:	de b7       	in	r29, 0x3e	; 62
     2aa:	5c 01       	movw	r10, r24
     2ac:	8f 88       	ldd	r8, Y+23	; 0x17
     2ae:	98 8c       	ldd	r9, Y+24	; 0x18
     2b0:	e9 8c       	ldd	r14, Y+25	; 0x19
     2b2:	fa 8c       	ldd	r15, Y+26	; 0x1a
     2b4:	cb 8c       	ldd	r12, Y+27	; 0x1b
     2b6:	dc 8c       	ldd	r13, Y+28	; 0x1c
     2b8:	c3 57       	subi	r28, 0x73	; 115
     2ba:	df 4f       	sbci	r29, 0xFF	; 255
     2bc:	08 81       	ld	r16, Y
     2be:	19 81       	ldd	r17, Y+1	; 0x01
     2c0:	cd 58       	subi	r28, 0x8D	; 141
     2c2:	d0 40       	sbci	r29, 0x00	; 0
     2c4:	c1 56       	subi	r28, 0x61	; 97
     2c6:	df 4f       	sbci	r29, 0xFF	; 255
     2c8:	68 80       	ld	r6, Y
     2ca:	79 80       	ldd	r7, Y+1	; 0x01
     2cc:	cf 59       	subi	r28, 0x9F	; 159
     2ce:	d0 40       	sbci	r29, 0x00	; 0
     2d0:	cf 55       	subi	r28, 0x5F	; 95
     2d2:	df 4f       	sbci	r29, 0xFF	; 255
     2d4:	48 80       	ld	r4, Y
     2d6:	59 80       	ldd	r5, Y+1	; 0x01
     2d8:	c1 5a       	subi	r28, 0xA1	; 161
     2da:	d0 40       	sbci	r29, 0x00	; 0
     2dc:	0e 94 aa 04 	call	0x954	; 0x954 <nokia_lcd_clear>
     2e0:	6d 89       	ldd	r22, Y+21	; 0x15
     2e2:	8b 89       	ldd	r24, Y+19	; 0x13
     2e4:	0e 94 9f 05 	call	0xb3e	; 0xb3e <nokia_lcd_set_cursor>
     2e8:	62 e0       	ldi	r22, 0x02	; 2
     2ea:	82 e0       	ldi	r24, 0x02	; 2
     2ec:	0e 94 e4 04 	call	0x9c8	; 0x9c8 <nokia_lcd_write_char>
     2f0:	21 e0       	ldi	r18, 0x01	; 1
     2f2:	c2 16       	cp	r12, r18
     2f4:	d1 04       	cpc	r13, r1
     2f6:	09 f0       	breq	.+2      	; 0x2fa <desenhaTela+0x74>
     2f8:	81 c0       	rjmp	.+258    	; 0x3fc <desenhaTela+0x176>
     2fa:	6e 2d       	mov	r22, r14
     2fc:	88 2d       	mov	r24, r8
     2fe:	0e 94 9f 05 	call	0xb3e	; 0xb3e <nokia_lcd_set_cursor>
     302:	62 e0       	ldi	r22, 0x02	; 2
     304:	83 e0       	ldi	r24, 0x03	; 3
     306:	0e 94 e4 04 	call	0x9c8	; 0x9c8 <nokia_lcd_write_char>
     30a:	88 e0       	ldi	r24, 0x08	; 8
     30c:	e8 16       	cp	r14, r24
     30e:	f1 04       	cpc	r15, r1
     310:	7c f0       	brlt	.+30     	; 0x330 <desenhaTela+0xaa>
     312:	94 e1       	ldi	r25, 0x14	; 20
     314:	e9 16       	cp	r14, r25
     316:	f1 04       	cpc	r15, r1
     318:	74 f0       	brlt	.+28     	; 0x336 <desenhaTela+0xb0>
     31a:	a0 e2       	ldi	r26, 0x20	; 32
     31c:	ea 16       	cp	r14, r26
     31e:	f1 04       	cpc	r15, r1
     320:	6c f0       	brlt	.+26     	; 0x33c <desenhaTela+0xb6>
     322:	b0 e2       	ldi	r27, 0x20	; 32
     324:	eb 16       	cp	r14, r27
     326:	f1 04       	cpc	r15, r1
     328:	61 f4       	brne	.+24     	; 0x342 <desenhaTela+0xbc>
     32a:	83 e0       	ldi	r24, 0x03	; 3
     32c:	90 e0       	ldi	r25, 0x00	; 0
     32e:	0b c0       	rjmp	.+22     	; 0x346 <desenhaTela+0xc0>
     330:	80 e0       	ldi	r24, 0x00	; 0
     332:	90 e0       	ldi	r25, 0x00	; 0
     334:	08 c0       	rjmp	.+16     	; 0x346 <desenhaTela+0xc0>
     336:	81 e0       	ldi	r24, 0x01	; 1
     338:	90 e0       	ldi	r25, 0x00	; 0
     33a:	05 c0       	rjmp	.+10     	; 0x346 <desenhaTela+0xc0>
     33c:	82 e0       	ldi	r24, 0x02	; 2
     33e:	90 e0       	ldi	r25, 0x00	; 0
     340:	02 c0       	rjmp	.+4      	; 0x346 <desenhaTela+0xc0>
     342:	8f ef       	ldi	r24, 0xFF	; 255
     344:	9f ef       	ldi	r25, 0xFF	; 255
     346:	e4 e4       	ldi	r30, 0x44	; 68
     348:	8e 16       	cp	r8, r30
     34a:	91 04       	cpc	r9, r1
     34c:	39 f0       	breq	.+14     	; 0x35c <desenhaTela+0xd6>
     34e:	f8 e3       	ldi	r31, 0x38	; 56
     350:	8f 16       	cp	r8, r31
     352:	91 04       	cpc	r9, r1
     354:	31 f4       	brne	.+12     	; 0x362 <desenhaTela+0xdc>
     356:	61 e0       	ldi	r22, 0x01	; 1
     358:	70 e0       	ldi	r23, 0x00	; 0
     35a:	05 c0       	rjmp	.+10     	; 0x366 <desenhaTela+0xe0>
     35c:	60 e0       	ldi	r22, 0x00	; 0
     35e:	70 e0       	ldi	r23, 0x00	; 0
     360:	02 c0       	rjmp	.+4      	; 0x366 <desenhaTela+0xe0>
     362:	6f ef       	ldi	r22, 0xFF	; 255
     364:	7f ef       	ldi	r23, 0xFF	; 255
     366:	9e 01       	movw	r18, r28
     368:	2d 5e       	subi	r18, 0xED	; 237
     36a:	3f 4f       	sbci	r19, 0xFF	; 255
     36c:	40 e0       	ldi	r20, 0x00	; 0
     36e:	50 e0       	ldi	r21, 0x00	; 0
     370:	40 17       	cp	r20, r16
     372:	51 07       	cpc	r21, r17
     374:	0c f0       	brlt	.+2      	; 0x378 <desenhaTela+0xf2>
     376:	42 c0       	rjmp	.+132    	; 0x3fc <desenhaTela+0x176>
     378:	d9 01       	movw	r26, r18
     37a:	54 96       	adiw	r26, 0x14	; 20
     37c:	ed 91       	ld	r30, X+
     37e:	fc 91       	ld	r31, X
     380:	55 97       	sbiw	r26, 0x15	; 21
     382:	6e 17       	cp	r22, r30
     384:	7f 07       	cpc	r23, r31
     386:	a9 f5       	brne	.+106    	; 0x3f2 <desenhaTela+0x16c>
     388:	56 96       	adiw	r26, 0x16	; 22
     38a:	ed 91       	ld	r30, X+
     38c:	fc 91       	ld	r31, X
     38e:	57 97       	sbiw	r26, 0x17	; 23
     390:	8e 17       	cp	r24, r30
     392:	9f 07       	cpc	r25, r31
     394:	71 f5       	brne	.+92     	; 0x3f2 <desenhaTela+0x16c>
     396:	01 50       	subi	r16, 0x01	; 1
     398:	11 09       	sbc	r17, r1
     39a:	79 01       	movw	r14, r18
     39c:	6a 01       	movw	r12, r20
     39e:	c0 16       	cp	r12, r16
     3a0:	d1 06       	cpc	r13, r17
     3a2:	8c f4       	brge	.+34     	; 0x3c6 <desenhaTela+0x140>
     3a4:	bf ef       	ldi	r27, 0xFF	; 255
     3a6:	cb 1a       	sub	r12, r27
     3a8:	db 0a       	sbc	r13, r27
     3aa:	ee e0       	ldi	r30, 0x0E	; 14
     3ac:	9e 2e       	mov	r9, r30
     3ae:	f7 01       	movw	r30, r14
     3b0:	78 96       	adiw	r30, 0x18	; 24
     3b2:	d7 01       	movw	r26, r14
     3b4:	1a 96       	adiw	r26, 0x0a	; 10
     3b6:	01 90       	ld	r0, Z+
     3b8:	0d 92       	st	X+, r0
     3ba:	9a 94       	dec	r9
     3bc:	e1 f7       	brne	.-8      	; 0x3b6 <desenhaTela+0x130>
     3be:	ee e0       	ldi	r30, 0x0E	; 14
     3c0:	ee 0e       	add	r14, r30
     3c2:	f1 1c       	adc	r15, r1
     3c4:	ec cf       	rjmp	.-40     	; 0x39e <desenhaTela+0x118>
     3c6:	10 92 20 01 	sts	0x0120, r1	; 0x800120 <inicioTiro>
     3ca:	10 92 21 01 	sts	0x0121, r1	; 0x800121 <inicioTiro+0x1>
     3ce:	10 92 22 01 	sts	0x0122, r1	; 0x800122 <inicioTiro+0x2>
     3d2:	10 92 23 01 	sts	0x0123, r1	; 0x800123 <inicioTiro+0x3>
     3d6:	10 92 28 01 	sts	0x0128, r1	; 0x800128 <tempo>
     3da:	10 92 29 01 	sts	0x0129, r1	; 0x800129 <tempo+0x1>
     3de:	10 92 2a 01 	sts	0x012A, r1	; 0x80012a <tempo+0x2>
     3e2:	10 92 2b 01 	sts	0x012B, r1	; 0x80012b <tempo+0x3>
     3e6:	41 2c       	mov	r4, r1
     3e8:	51 2c       	mov	r5, r1
     3ea:	61 2c       	mov	r6, r1
     3ec:	71 2c       	mov	r7, r1
     3ee:	c1 2c       	mov	r12, r1
     3f0:	d1 2c       	mov	r13, r1
     3f2:	4f 5f       	subi	r20, 0xFF	; 255
     3f4:	5f 4f       	sbci	r21, 0xFF	; 255
     3f6:	22 5f       	subi	r18, 0xF2	; 242
     3f8:	3f 4f       	sbci	r19, 0xFF	; 255
     3fa:	ba cf       	rjmp	.-140    	; 0x370 <desenhaTela+0xea>
     3fc:	cd 55       	subi	r28, 0x5D	; 93
     3fe:	df 4f       	sbci	r29, 0xFF	; 255
     400:	88 81       	ld	r24, Y
     402:	99 81       	ldd	r25, Y+1	; 0x01
     404:	c3 5a       	subi	r28, 0xA3	; 163
     406:	d0 40       	sbci	r29, 0x00	; 0
     408:	01 97       	sbiw	r24, 0x01	; 1
     40a:	31 f4       	brne	.+12     	; 0x418 <__EEPROM_REGION_LENGTH__+0x18>
     40c:	ce 01       	movw	r24, r28
     40e:	43 96       	adiw	r24, 0x13	; 19
     410:	7c 01       	movw	r14, r24
     412:	81 2c       	mov	r8, r1
     414:	91 2c       	mov	r9, r1
     416:	06 c0       	rjmp	.+12     	; 0x424 <__EEPROM_REGION_LENGTH__+0x24>
     418:	de 01       	movw	r26, r28
     41a:	53 96       	adiw	r26, 0x13	; 19
     41c:	7d 01       	movw	r14, r26
     41e:	81 2c       	mov	r8, r1
     420:	91 2c       	mov	r9, r1
     422:	13 c0       	rjmp	.+38     	; 0x44a <__EEPROM_REGION_LENGTH__+0x4a>
     424:	2e e0       	ldi	r18, 0x0E	; 14
     426:	e2 0e       	add	r14, r18
     428:	f1 1c       	adc	r15, r1
     42a:	80 16       	cp	r8, r16
     42c:	91 06       	cpc	r9, r17
     42e:	a4 f7       	brge	.-24     	; 0x418 <__EEPROM_REGION_LENGTH__+0x18>
     430:	f7 01       	movw	r30, r14
     432:	62 81       	ldd	r22, Z+2	; 0x02
     434:	80 81       	ld	r24, Z
     436:	0e 94 9f 05 	call	0xb3e	; 0xb3e <nokia_lcd_set_cursor>
     43a:	62 e0       	ldi	r22, 0x02	; 2
     43c:	83 e0       	ldi	r24, 0x03	; 3
     43e:	0e 94 e4 04 	call	0x9c8	; 0x9c8 <nokia_lcd_write_char>
     442:	ff ef       	ldi	r31, 0xFF	; 255
     444:	8f 1a       	sub	r8, r31
     446:	9f 0a       	sbc	r9, r31
     448:	ed cf       	rjmp	.-38     	; 0x424 <__EEPROM_REGION_LENGTH__+0x24>
     44a:	80 16       	cp	r8, r16
     44c:	91 06       	cpc	r9, r17
     44e:	9c f4       	brge	.+38     	; 0x476 <__EEPROM_REGION_LENGTH__+0x76>
     450:	d7 01       	movw	r26, r14
     452:	1c 96       	adiw	r26, 0x0c	; 12
     454:	6c 91       	ld	r22, X
     456:	1c 97       	sbiw	r26, 0x0c	; 12
     458:	1a 96       	adiw	r26, 0x0a	; 10
     45a:	8c 91       	ld	r24, X
     45c:	0e 94 9f 05 	call	0xb3e	; 0xb3e <nokia_lcd_set_cursor>
     460:	62 e0       	ldi	r22, 0x02	; 2
     462:	84 e0       	ldi	r24, 0x04	; 4
     464:	0e 94 e4 04 	call	0x9c8	; 0x9c8 <nokia_lcd_write_char>
     468:	bf ef       	ldi	r27, 0xFF	; 255
     46a:	8b 1a       	sub	r8, r27
     46c:	9b 0a       	sbc	r9, r27
     46e:	ee e0       	ldi	r30, 0x0E	; 14
     470:	ee 0e       	add	r14, r30
     472:	f1 1c       	adc	r15, r1
     474:	ea cf       	rjmp	.-44     	; 0x44a <__EEPROM_REGION_LENGTH__+0x4a>
     476:	0e 94 a4 05 	call	0xb48	; 0xb48 <nokia_lcd_render>
     47a:	dc 8e       	std	Y+28, r13	; 0x1c
     47c:	cb 8e       	std	Y+27, r12	; 0x1b
     47e:	c3 57       	subi	r28, 0x73	; 115
     480:	df 4f       	sbci	r29, 0xFF	; 255
     482:	19 83       	std	Y+1, r17	; 0x01
     484:	08 83       	st	Y, r16
     486:	cd 58       	subi	r28, 0x8D	; 141
     488:	d0 40       	sbci	r29, 0x00	; 0
     48a:	c1 56       	subi	r28, 0x61	; 97
     48c:	df 4f       	sbci	r29, 0xFF	; 255
     48e:	79 82       	std	Y+1, r7	; 0x01
     490:	68 82       	st	Y, r6
     492:	cf 59       	subi	r28, 0x9F	; 159
     494:	d0 40       	sbci	r29, 0x00	; 0
     496:	cf 55       	subi	r28, 0x5F	; 95
     498:	df 4f       	sbci	r29, 0xFF	; 255
     49a:	59 82       	std	Y+1, r5	; 0x01
     49c:	48 82       	st	Y, r4
     49e:	c1 5a       	subi	r28, 0xA1	; 161
     4a0:	d0 40       	sbci	r29, 0x00	; 0
     4a2:	82 e9       	ldi	r24, 0x92	; 146
     4a4:	fe 01       	movw	r30, r28
     4a6:	73 96       	adiw	r30, 0x13	; 19
     4a8:	d5 01       	movw	r26, r10
     4aa:	01 90       	ld	r0, Z+
     4ac:	0d 92       	st	X+, r0
     4ae:	8a 95       	dec	r24
     4b0:	e1 f7       	brne	.-8      	; 0x4aa <__EEPROM_REGION_LENGTH__+0xaa>
     4b2:	c5 01       	movw	r24, r10
     4b4:	df 91       	pop	r29
     4b6:	cf 91       	pop	r28
     4b8:	1f 91       	pop	r17
     4ba:	0f 91       	pop	r16
     4bc:	ff 90       	pop	r15
     4be:	ef 90       	pop	r14
     4c0:	df 90       	pop	r13
     4c2:	cf 90       	pop	r12
     4c4:	bf 90       	pop	r11
     4c6:	af 90       	pop	r10
     4c8:	9f 90       	pop	r9
     4ca:	8f 90       	pop	r8
     4cc:	7f 90       	pop	r7
     4ce:	6f 90       	pop	r6
     4d0:	5f 90       	pop	r5
     4d2:	4f 90       	pop	r4
     4d4:	08 95       	ret

000004d6 <invocaInimigo>:
     4d6:	4f 92       	push	r4
     4d8:	5f 92       	push	r5
     4da:	6f 92       	push	r6
     4dc:	7f 92       	push	r7
     4de:	8f 92       	push	r8
     4e0:	9f 92       	push	r9
     4e2:	af 92       	push	r10
     4e4:	bf 92       	push	r11
     4e6:	cf 92       	push	r12
     4e8:	df 92       	push	r13
     4ea:	ef 92       	push	r14
     4ec:	ff 92       	push	r15
     4ee:	0f 93       	push	r16
     4f0:	1f 93       	push	r17
     4f2:	cf 93       	push	r28
     4f4:	df 93       	push	r29
     4f6:	cd b7       	in	r28, 0x3d	; 61
     4f8:	de b7       	in	r29, 0x3e	; 62
     4fa:	c2 59       	subi	r28, 0x92	; 146
     4fc:	d1 09       	sbc	r29, r1
     4fe:	0f b6       	in	r0, 0x3f	; 63
     500:	f8 94       	cli
     502:	de bf       	out	0x3e, r29	; 62
     504:	0f be       	out	0x3f, r0	; 63
     506:	cd bf       	out	0x3d, r28	; 61
     508:	5c 01       	movw	r10, r24
     50a:	c1 5e       	subi	r28, 0xE1	; 225
     50c:	de 4f       	sbci	r29, 0xFE	; 254
     50e:	c8 80       	ld	r12, Y
     510:	d9 80       	ldd	r13, Y+1	; 0x01
     512:	cf 51       	subi	r28, 0x1F	; 31
     514:	d1 40       	sbci	r29, 0x01	; 1
     516:	80 e0       	ldi	r24, 0x00	; 0
     518:	90 e0       	ldi	r25, 0x00	; 0
     51a:	0e 94 12 07 	call	0xe24	; 0xe24 <time>
     51e:	cb 01       	movw	r24, r22
     520:	0e 94 46 0e 	call	0x1c8c	; 0x1c8c <srand>
     524:	28 e0       	ldi	r18, 0x08	; 8
     526:	c2 16       	cp	r12, r18
     528:	d1 04       	cpc	r13, r1
     52a:	54 f0       	brlt	.+20     	; 0x540 <invocaInimigo+0x6a>
     52c:	82 e9       	ldi	r24, 0x92	; 146
     52e:	fe 01       	movw	r30, r28
     530:	eb 55       	subi	r30, 0x5B	; 91
     532:	ff 4f       	sbci	r31, 0xFF	; 255
     534:	d5 01       	movw	r26, r10
     536:	01 90       	ld	r0, Z+
     538:	0d 92       	st	X+, r0
     53a:	8a 95       	dec	r24
     53c:	e1 f7       	brne	.-8      	; 0x536 <invocaInimigo+0x60>
     53e:	be c0       	rjmp	.+380    	; 0x6bc <invocaInimigo+0x1e6>
     540:	0e 94 41 0e 	call	0x1c82	; 0x1c82 <rand>
     544:	62 e0       	ldi	r22, 0x02	; 2
     546:	70 e0       	ldi	r23, 0x00	; 0
     548:	0e 94 c7 0b 	call	0x178e	; 0x178e <__divmodhi4>
     54c:	8c 01       	movw	r16, r24
     54e:	24 ef       	ldi	r18, 0xF4	; 244
     550:	20 03       	mulsu	r18, r16
     552:	70 01       	movw	r14, r0
     554:	21 9f       	mul	r18, r17
     556:	f0 0c       	add	r15, r0
     558:	11 24       	eor	r1, r1
     55a:	34 e4       	ldi	r19, 0x44	; 68
     55c:	e3 0e       	add	r14, r19
     55e:	f1 1c       	adc	r15, r1
     560:	0e 94 41 0e 	call	0x1c82	; 0x1c82 <rand>
     564:	64 e0       	ldi	r22, 0x04	; 4
     566:	70 e0       	ldi	r23, 0x00	; 0
     568:	0e 94 c7 0b 	call	0x178e	; 0x178e <__divmodhi4>
     56c:	2c e0       	ldi	r18, 0x0C	; 12
     56e:	28 9f       	mul	r18, r24
     570:	a0 01       	movw	r20, r0
     572:	29 9f       	mul	r18, r25
     574:	50 0d       	add	r21, r0
     576:	11 24       	eor	r1, r1
     578:	20 e0       	ldi	r18, 0x00	; 0
     57a:	30 e0       	ldi	r19, 0x00	; 0
     57c:	6e e0       	ldi	r22, 0x0E	; 14
     57e:	46 2e       	mov	r4, r22
     580:	72 e0       	ldi	r23, 0x02	; 2
     582:	67 2e       	mov	r6, r23
     584:	71 2c       	mov	r7, r1
     586:	e4 e0       	ldi	r30, 0x04	; 4
     588:	8e 2e       	mov	r8, r30
     58a:	91 2c       	mov	r9, r1
     58c:	fc e0       	ldi	r31, 0x0C	; 12
     58e:	5f 2e       	mov	r5, r31
     590:	2c 15       	cp	r18, r12
     592:	3d 05       	cpc	r19, r13
     594:	9c f5       	brge	.+102    	; 0x5fc <invocaInimigo+0x126>
     596:	42 9e       	mul	r4, r18
     598:	f0 01       	movw	r30, r0
     59a:	43 9e       	mul	r4, r19
     59c:	f0 0d       	add	r31, r0
     59e:	11 24       	eor	r1, r1
     5a0:	65 ea       	ldi	r22, 0xA5	; 165
     5a2:	70 e0       	ldi	r23, 0x00	; 0
     5a4:	6c 0f       	add	r22, r28
     5a6:	7d 1f       	adc	r23, r29
     5a8:	e6 0f       	add	r30, r22
     5aa:	f7 1f       	adc	r31, r23
     5ac:	64 85       	ldd	r22, Z+12	; 0x0c
     5ae:	75 85       	ldd	r23, Z+13	; 0x0d
     5b0:	46 17       	cp	r20, r22
     5b2:	57 07       	cpc	r21, r23
     5b4:	01 f5       	brne	.+64     	; 0x5f6 <invocaInimigo+0x120>
     5b6:	62 85       	ldd	r22, Z+10	; 0x0a
     5b8:	73 85       	ldd	r23, Z+11	; 0x0b
     5ba:	6e 15       	cp	r22, r14
     5bc:	7f 05       	cpc	r23, r15
     5be:	d9 f4       	brne	.+54     	; 0x5f6 <invocaInimigo+0x120>
     5c0:	0e 94 41 0e 	call	0x1c82	; 0x1c82 <rand>
     5c4:	b3 01       	movw	r22, r6
     5c6:	0e 94 c7 0b 	call	0x178e	; 0x178e <__divmodhi4>
     5ca:	8c 01       	movw	r16, r24
     5cc:	74 ef       	ldi	r23, 0xF4	; 244
     5ce:	70 03       	mulsu	r23, r16
     5d0:	70 01       	movw	r14, r0
     5d2:	71 9f       	mul	r23, r17
     5d4:	f0 0c       	add	r15, r0
     5d6:	11 24       	eor	r1, r1
     5d8:	84 e4       	ldi	r24, 0x44	; 68
     5da:	e8 0e       	add	r14, r24
     5dc:	f1 1c       	adc	r15, r1
     5de:	0e 94 41 0e 	call	0x1c82	; 0x1c82 <rand>
     5e2:	b4 01       	movw	r22, r8
     5e4:	0e 94 c7 0b 	call	0x178e	; 0x178e <__divmodhi4>
     5e8:	58 9e       	mul	r5, r24
     5ea:	a0 01       	movw	r20, r0
     5ec:	59 9e       	mul	r5, r25
     5ee:	50 0d       	add	r21, r0
     5f0:	11 24       	eor	r1, r1
     5f2:	20 e0       	ldi	r18, 0x00	; 0
     5f4:	30 e0       	ldi	r19, 0x00	; 0
     5f6:	2f 5f       	subi	r18, 0xFF	; 255
     5f8:	3f 4f       	sbci	r19, 0xFF	; 255
     5fa:	ca cf       	rjmp	.-108    	; 0x590 <invocaInimigo+0xba>
     5fc:	2e e0       	ldi	r18, 0x0E	; 14
     5fe:	2c 9d       	mul	r18, r12
     600:	f0 01       	movw	r30, r0
     602:	2d 9d       	mul	r18, r13
     604:	f0 0d       	add	r31, r0
     606:	11 24       	eor	r1, r1
     608:	3a 96       	adiw	r30, 0x0a	; 10
     60a:	25 ea       	ldi	r18, 0xA5	; 165
     60c:	30 e0       	ldi	r19, 0x00	; 0
     60e:	2c 0f       	add	r18, r28
     610:	3d 1f       	adc	r19, r29
     612:	e2 0f       	add	r30, r18
     614:	f3 1f       	adc	r31, r19
     616:	f1 82       	std	Z+1, r15	; 0x01
     618:	e0 82       	st	Z, r14
     61a:	53 83       	std	Z+3, r21	; 0x03
     61c:	42 83       	std	Z+2, r20	; 0x02
     61e:	11 86       	std	Z+9, r1	; 0x09
     620:	10 86       	std	Z+8, r1	; 0x08
     622:	13 87       	std	Z+11, r17	; 0x0b
     624:	02 87       	std	Z+10, r16	; 0x0a
     626:	95 87       	std	Z+13, r25	; 0x0d
     628:	84 87       	std	Z+12, r24	; 0x0c
     62a:	f8 01       	movw	r30, r16
     62c:	ee 0f       	add	r30, r30
     62e:	ff 1f       	adc	r31, r31
     630:	ee 0f       	add	r30, r30
     632:	ff 1f       	adc	r31, r31
     634:	e8 0f       	add	r30, r24
     636:	f9 1f       	adc	r31, r25
     638:	fe 96       	adiw	r30, 0x3e	; 62
     63a:	ee 0f       	add	r30, r30
     63c:	ff 1f       	adc	r31, r31
     63e:	e2 0f       	add	r30, r18
     640:	f3 1f       	adc	r31, r19
     642:	81 e0       	ldi	r24, 0x01	; 1
     644:	90 e0       	ldi	r25, 0x00	; 0
     646:	91 83       	std	Z+1, r25	; 0x01
     648:	80 83       	st	Z, r24
     64a:	3f ef       	ldi	r19, 0xFF	; 255
     64c:	c3 1a       	sub	r12, r19
     64e:	d3 0a       	sbc	r13, r19
     650:	c1 5e       	subi	r28, 0xE1	; 225
     652:	de 4f       	sbci	r29, 0xFE	; 254
     654:	d9 82       	std	Y+1, r13	; 0x01
     656:	c8 82       	st	Y, r12
     658:	cf 51       	subi	r28, 0x1F	; 31
     65a:	d1 40       	sbci	r29, 0x01	; 1
     65c:	6d b7       	in	r22, 0x3d	; 61
     65e:	7e b7       	in	r23, 0x3e	; 62
     660:	62 59       	subi	r22, 0x92	; 146
     662:	71 09       	sbc	r23, r1
     664:	0f b6       	in	r0, 0x3f	; 63
     666:	f8 94       	cli
     668:	7e bf       	out	0x3e, r23	; 62
     66a:	0f be       	out	0x3f, r0	; 63
     66c:	6d bf       	out	0x3d, r22	; 61
     66e:	ad b7       	in	r26, 0x3d	; 61
     670:	be b7       	in	r27, 0x3e	; 62
     672:	11 96       	adiw	r26, 0x01	; 1
     674:	82 e9       	ldi	r24, 0x92	; 146
     676:	fe 01       	movw	r30, r28
     678:	eb 55       	subi	r30, 0x5B	; 91
     67a:	ff 4f       	sbci	r31, 0xFF	; 255
     67c:	01 90       	ld	r0, Z+
     67e:	0d 92       	st	X+, r0
     680:	8a 95       	dec	r24
     682:	e1 f7       	brne	.-8      	; 0x67c <invocaInimigo+0x1a6>
     684:	ce 01       	movw	r24, r28
     686:	01 96       	adiw	r24, 0x01	; 1
     688:	0e 94 43 01 	call	0x286	; 0x286 <desenhaTela>
     68c:	82 e9       	ldi	r24, 0x92	; 146
     68e:	fe 01       	movw	r30, r28
     690:	31 96       	adiw	r30, 0x01	; 1
     692:	de 01       	movw	r26, r28
     694:	ab 55       	subi	r26, 0x5B	; 91
     696:	bf 4f       	sbci	r27, 0xFF	; 255
     698:	01 90       	ld	r0, Z+
     69a:	0d 92       	st	X+, r0
     69c:	8a 95       	dec	r24
     69e:	e1 f7       	brne	.-8      	; 0x698 <invocaInimigo+0x1c2>
     6a0:	82 e9       	ldi	r24, 0x92	; 146
     6a2:	fe 01       	movw	r30, r28
     6a4:	eb 55       	subi	r30, 0x5B	; 91
     6a6:	ff 4f       	sbci	r31, 0xFF	; 255
     6a8:	d5 01       	movw	r26, r10
     6aa:	01 90       	ld	r0, Z+
     6ac:	0d 92       	st	X+, r0
     6ae:	8a 95       	dec	r24
     6b0:	e1 f7       	brne	.-8      	; 0x6aa <invocaInimigo+0x1d4>
     6b2:	0f b6       	in	r0, 0x3f	; 63
     6b4:	f8 94       	cli
     6b6:	de bf       	out	0x3e, r29	; 62
     6b8:	0f be       	out	0x3f, r0	; 63
     6ba:	cd bf       	out	0x3d, r28	; 61
     6bc:	c5 01       	movw	r24, r10
     6be:	ce 56       	subi	r28, 0x6E	; 110
     6c0:	df 4f       	sbci	r29, 0xFF	; 255
     6c2:	0f b6       	in	r0, 0x3f	; 63
     6c4:	f8 94       	cli
     6c6:	de bf       	out	0x3e, r29	; 62
     6c8:	0f be       	out	0x3f, r0	; 63
     6ca:	cd bf       	out	0x3d, r28	; 61
     6cc:	df 91       	pop	r29
     6ce:	cf 91       	pop	r28
     6d0:	1f 91       	pop	r17
     6d2:	0f 91       	pop	r16
     6d4:	ff 90       	pop	r15
     6d6:	ef 90       	pop	r14
     6d8:	df 90       	pop	r13
     6da:	cf 90       	pop	r12
     6dc:	bf 90       	pop	r11
     6de:	af 90       	pop	r10
     6e0:	9f 90       	pop	r9
     6e2:	8f 90       	pop	r8
     6e4:	7f 90       	pop	r7
     6e6:	6f 90       	pop	r6
     6e8:	5f 90       	pop	r5
     6ea:	4f 90       	pop	r4
     6ec:	08 95       	ret

000006ee <tiroPlayer>:
     6ee:	0f 93       	push	r16
     6f0:	1f 93       	push	r17
     6f2:	cf 93       	push	r28
     6f4:	df 93       	push	r29
     6f6:	cd b7       	in	r28, 0x3d	; 61
     6f8:	de b7       	in	r29, 0x3e	; 62
     6fa:	8c 01       	movw	r16, r24
     6fc:	89 85       	ldd	r24, Y+9	; 0x09
     6fe:	9a 85       	ldd	r25, Y+10	; 0x0a
     700:	28 e0       	ldi	r18, 0x08	; 8
     702:	30 e0       	ldi	r19, 0x00	; 0
     704:	3c 87       	std	Y+12, r19	; 0x0c
     706:	2b 87       	std	Y+11, r18	; 0x0b
     708:	9e 87       	std	Y+14, r25	; 0x0e
     70a:	8d 87       	std	Y+13, r24	; 0x0d
     70c:	81 e0       	ldi	r24, 0x01	; 1
     70e:	90 e0       	ldi	r25, 0x00	; 0
     710:	98 8b       	std	Y+16, r25	; 0x10
     712:	8f 87       	std	Y+15, r24	; 0x0f
     714:	8d b7       	in	r24, 0x3d	; 61
     716:	9e b7       	in	r25, 0x3e	; 62
     718:	82 59       	subi	r24, 0x92	; 146
     71a:	91 09       	sbc	r25, r1
     71c:	0f b6       	in	r0, 0x3f	; 63
     71e:	f8 94       	cli
     720:	9e bf       	out	0x3e, r25	; 62
     722:	0f be       	out	0x3f, r0	; 63
     724:	8d bf       	out	0x3d, r24	; 61
     726:	ad b7       	in	r26, 0x3d	; 61
     728:	be b7       	in	r27, 0x3e	; 62
     72a:	11 96       	adiw	r26, 0x01	; 1
     72c:	82 e9       	ldi	r24, 0x92	; 146
     72e:	fe 01       	movw	r30, r28
     730:	37 96       	adiw	r30, 0x07	; 7
     732:	01 90       	ld	r0, Z+
     734:	0d 92       	st	X+, r0
     736:	8a 95       	dec	r24
     738:	e1 f7       	brne	.-8      	; 0x732 <tiroPlayer+0x44>
     73a:	ce 01       	movw	r24, r28
     73c:	07 96       	adiw	r24, 0x07	; 7
     73e:	0e 94 43 01 	call	0x286	; 0x286 <desenhaTela>
     742:	82 e9       	ldi	r24, 0x92	; 146
     744:	fe 01       	movw	r30, r28
     746:	37 96       	adiw	r30, 0x07	; 7
     748:	d8 01       	movw	r26, r16
     74a:	01 90       	ld	r0, Z+
     74c:	0d 92       	st	X+, r0
     74e:	8a 95       	dec	r24
     750:	e1 f7       	brne	.-8      	; 0x74a <tiroPlayer+0x5c>
     752:	0f b6       	in	r0, 0x3f	; 63
     754:	f8 94       	cli
     756:	de bf       	out	0x3e, r29	; 62
     758:	0f be       	out	0x3f, r0	; 63
     75a:	cd bf       	out	0x3d, r28	; 61
     75c:	c8 01       	movw	r24, r16
     75e:	df 91       	pop	r29
     760:	cf 91       	pop	r28
     762:	1f 91       	pop	r17
     764:	0f 91       	pop	r16
     766:	08 95       	ret

00000768 <tiroInimigos>:
     768:	cf 93       	push	r28
     76a:	df 93       	push	r29
     76c:	cd b7       	in	r28, 0x3d	; 61
     76e:	de b7       	in	r29, 0x3e	; 62
     770:	c9 56       	subi	r28, 0x69	; 105
     772:	df 4f       	sbci	r29, 0xFF	; 255
     774:	28 81       	ld	r18, Y
     776:	39 81       	ldd	r19, Y+1	; 0x01
     778:	c7 59       	subi	r28, 0x97	; 151
     77a:	d0 40       	sbci	r29, 0x00	; 0
     77c:	4e e0       	ldi	r20, 0x0E	; 14
     77e:	42 9f       	mul	r20, r18
     780:	f0 01       	movw	r30, r0
     782:	43 9f       	mul	r20, r19
     784:	f0 0d       	add	r31, r0
     786:	11 24       	eor	r1, r1
     788:	65 e0       	ldi	r22, 0x05	; 5
     78a:	70 e0       	ldi	r23, 0x00	; 0
     78c:	6c 0f       	add	r22, r28
     78e:	7d 1f       	adc	r23, r29
     790:	e6 0f       	add	r30, r22
     792:	f7 1f       	adc	r31, r23
     794:	61 e0       	ldi	r22, 0x01	; 1
     796:	70 e0       	ldi	r23, 0x00	; 0
     798:	73 8b       	std	Z+19, r23	; 0x13
     79a:	62 8b       	std	Z+18, r22	; 0x12
     79c:	2f 5f       	subi	r18, 0xFF	; 255
     79e:	3f 4f       	sbci	r19, 0xFF	; 255
     7a0:	42 9f       	mul	r20, r18
     7a2:	d0 01       	movw	r26, r0
     7a4:	43 9f       	mul	r20, r19
     7a6:	b0 0d       	add	r27, r0
     7a8:	11 24       	eor	r1, r1
     7aa:	25 e0       	ldi	r18, 0x05	; 5
     7ac:	30 e0       	ldi	r19, 0x00	; 0
     7ae:	2c 0f       	add	r18, r28
     7b0:	3d 1f       	adc	r19, r29
     7b2:	a2 0f       	add	r26, r18
     7b4:	b3 1f       	adc	r27, r19
     7b6:	22 85       	ldd	r18, Z+10	; 0x0a
     7b8:	33 85       	ldd	r19, Z+11	; 0x0b
     7ba:	28 50       	subi	r18, 0x08	; 8
     7bc:	31 09       	sbc	r19, r1
     7be:	2d 93       	st	X+, r18
     7c0:	3c 93       	st	X, r19
     7c2:	24 85       	ldd	r18, Z+12	; 0x0c
     7c4:	35 85       	ldd	r19, Z+13	; 0x0d
     7c6:	31 8b       	std	Z+17, r19	; 0x11
     7c8:	20 8b       	std	Z+16, r18	; 0x10
     7ca:	22 e9       	ldi	r18, 0x92	; 146
     7cc:	fe 01       	movw	r30, r28
     7ce:	35 96       	adiw	r30, 0x05	; 5
     7d0:	dc 01       	movw	r26, r24
     7d2:	01 90       	ld	r0, Z+
     7d4:	0d 92       	st	X+, r0
     7d6:	2a 95       	dec	r18
     7d8:	e1 f7       	brne	.-8      	; 0x7d2 <tiroInimigos+0x6a>
     7da:	df 91       	pop	r29
     7dc:	cf 91       	pop	r28
     7de:	08 95       	ret

000007e0 <moveNave>:
     7e0:	0f 93       	push	r16
     7e2:	1f 93       	push	r17
     7e4:	cf 93       	push	r28
     7e6:	df 93       	push	r29
     7e8:	ec 01       	movw	r28, r24
     7ea:	8b 01       	movw	r16, r22
     7ec:	0e 94 aa 04 	call	0x954	; 0x954 <nokia_lcd_clear>
     7f0:	60 2f       	mov	r22, r16
     7f2:	8c 2f       	mov	r24, r28
     7f4:	0e 94 9f 05 	call	0xb3e	; 0xb3e <nokia_lcd_set_cursor>
     7f8:	62 e0       	ldi	r22, 0x02	; 2
     7fa:	82 e0       	ldi	r24, 0x02	; 2
     7fc:	0e 94 e4 04 	call	0x9c8	; 0x9c8 <nokia_lcd_write_char>
     800:	0e 94 a4 05 	call	0xb48	; 0xb48 <nokia_lcd_render>
     804:	2f ef       	ldi	r18, 0xFF	; 255
     806:	81 ee       	ldi	r24, 0xE1	; 225
     808:	94 e0       	ldi	r25, 0x04	; 4
     80a:	21 50       	subi	r18, 0x01	; 1
     80c:	80 40       	sbci	r24, 0x00	; 0
     80e:	90 40       	sbci	r25, 0x00	; 0
     810:	e1 f7       	brne	.-8      	; 0x80a <__DATA_REGION_LENGTH__+0xa>
     812:	00 c0       	rjmp	.+0      	; 0x814 <__DATA_REGION_LENGTH__+0x14>
     814:	00 00       	nop
     816:	df 91       	pop	r29
     818:	cf 91       	pop	r28
     81a:	1f 91       	pop	r17
     81c:	0f 91       	pop	r16
     81e:	08 95       	ret

00000820 <__vector_11>:
     820:	1f 92       	push	r1
     822:	0f 92       	push	r0
     824:	0f b6       	in	r0, 0x3f	; 63
     826:	0f 92       	push	r0
     828:	11 24       	eor	r1, r1
     82a:	8f 93       	push	r24
     82c:	9f 93       	push	r25
     82e:	af 93       	push	r26
     830:	bf 93       	push	r27
     832:	80 91 28 01 	lds	r24, 0x0128	; 0x800128 <tempo>
     836:	90 91 29 01 	lds	r25, 0x0129	; 0x800129 <tempo+0x1>
     83a:	a0 91 2a 01 	lds	r26, 0x012A	; 0x80012a <tempo+0x2>
     83e:	b0 91 2b 01 	lds	r27, 0x012B	; 0x80012b <tempo+0x3>
     842:	01 96       	adiw	r24, 0x01	; 1
     844:	a1 1d       	adc	r26, r1
     846:	b1 1d       	adc	r27, r1
     848:	80 93 28 01 	sts	0x0128, r24	; 0x800128 <tempo>
     84c:	90 93 29 01 	sts	0x0129, r25	; 0x800129 <tempo+0x1>
     850:	a0 93 2a 01 	sts	0x012A, r26	; 0x80012a <tempo+0x2>
     854:	b0 93 2b 01 	sts	0x012B, r27	; 0x80012b <tempo+0x3>
     858:	80 91 24 01 	lds	r24, 0x0124	; 0x800124 <tempoInimigos>
     85c:	90 91 25 01 	lds	r25, 0x0125	; 0x800125 <tempoInimigos+0x1>
     860:	a0 91 26 01 	lds	r26, 0x0126	; 0x800126 <tempoInimigos+0x2>
     864:	b0 91 27 01 	lds	r27, 0x0127	; 0x800127 <tempoInimigos+0x3>
     868:	01 96       	adiw	r24, 0x01	; 1
     86a:	a1 1d       	adc	r26, r1
     86c:	b1 1d       	adc	r27, r1
     86e:	80 93 24 01 	sts	0x0124, r24	; 0x800124 <tempoInimigos>
     872:	90 93 25 01 	sts	0x0125, r25	; 0x800125 <tempoInimigos+0x1>
     876:	a0 93 26 01 	sts	0x0126, r26	; 0x800126 <tempoInimigos+0x2>
     87a:	b0 93 27 01 	sts	0x0127, r27	; 0x800127 <tempoInimigos+0x3>
     87e:	bf 91       	pop	r27
     880:	af 91       	pop	r26
     882:	9f 91       	pop	r25
     884:	8f 91       	pop	r24
     886:	0f 90       	pop	r0
     888:	0f be       	out	0x3f, r0	; 63
     88a:	0f 90       	pop	r0
     88c:	1f 90       	pop	r1
     88e:	18 95       	reti

00000890 <write>:
     890:	29 98       	cbi	0x05, 1	; 5
     892:	66 23       	and	r22, r22
     894:	11 f0       	breq	.+4      	; 0x89a <write+0xa>
     896:	2b 9a       	sbi	0x05, 3	; 5
     898:	01 c0       	rjmp	.+2      	; 0x89c <write+0xc>
     89a:	2b 98       	cbi	0x05, 3	; 5
     89c:	27 e0       	ldi	r18, 0x07	; 7
     89e:	30 e0       	ldi	r19, 0x00	; 0
     8a0:	90 e0       	ldi	r25, 0x00	; 0
     8a2:	ac 01       	movw	r20, r24
     8a4:	02 2e       	mov	r0, r18
     8a6:	02 c0       	rjmp	.+4      	; 0x8ac <write+0x1c>
     8a8:	55 95       	asr	r21
     8aa:	47 95       	ror	r20
     8ac:	0a 94       	dec	r0
     8ae:	e2 f7       	brpl	.-8      	; 0x8a8 <write+0x18>
     8b0:	40 ff       	sbrs	r20, 0
     8b2:	02 c0       	rjmp	.+4      	; 0x8b8 <write+0x28>
     8b4:	2c 9a       	sbi	0x05, 4	; 5
     8b6:	01 c0       	rjmp	.+2      	; 0x8ba <write+0x2a>
     8b8:	2c 98       	cbi	0x05, 4	; 5
     8ba:	2d 9a       	sbi	0x05, 5	; 5
     8bc:	2d 98       	cbi	0x05, 5	; 5
     8be:	21 50       	subi	r18, 0x01	; 1
     8c0:	31 09       	sbc	r19, r1
     8c2:	78 f7       	brcc	.-34     	; 0x8a2 <write+0x12>
     8c4:	29 9a       	sbi	0x05, 1	; 5
     8c6:	08 95       	ret

000008c8 <write_cmd>:
     8c8:	60 e0       	ldi	r22, 0x00	; 0
     8ca:	0c 94 48 04 	jmp	0x890	; 0x890 <write>

000008ce <nokia_lcd_init>:
     8ce:	cf 93       	push	r28
     8d0:	df 93       	push	r29
     8d2:	21 9a       	sbi	0x04, 1	; 4
     8d4:	22 9a       	sbi	0x04, 2	; 4
     8d6:	23 9a       	sbi	0x04, 3	; 4
     8d8:	24 9a       	sbi	0x04, 4	; 4
     8da:	25 9a       	sbi	0x04, 5	; 4
     8dc:	2a 9a       	sbi	0x05, 2	; 5
     8de:	29 9a       	sbi	0x05, 1	; 5
     8e0:	8f e3       	ldi	r24, 0x3F	; 63
     8e2:	9c e9       	ldi	r25, 0x9C	; 156
     8e4:	01 97       	sbiw	r24, 0x01	; 1
     8e6:	f1 f7       	brne	.-4      	; 0x8e4 <nokia_lcd_init+0x16>
     8e8:	00 c0       	rjmp	.+0      	; 0x8ea <nokia_lcd_init+0x1c>
     8ea:	00 00       	nop
     8ec:	2a 98       	cbi	0x05, 2	; 5
     8ee:	9f ef       	ldi	r25, 0xFF	; 255
     8f0:	2a e6       	ldi	r18, 0x6A	; 106
     8f2:	83 e0       	ldi	r24, 0x03	; 3
     8f4:	91 50       	subi	r25, 0x01	; 1
     8f6:	20 40       	sbci	r18, 0x00	; 0
     8f8:	80 40       	sbci	r24, 0x00	; 0
     8fa:	e1 f7       	brne	.-8      	; 0x8f4 <nokia_lcd_init+0x26>
     8fc:	00 c0       	rjmp	.+0      	; 0x8fe <nokia_lcd_init+0x30>
     8fe:	00 00       	nop
     900:	2a 9a       	sbi	0x05, 2	; 5
     902:	29 98       	cbi	0x05, 1	; 5
     904:	81 e2       	ldi	r24, 0x21	; 33
     906:	0e 94 64 04 	call	0x8c8	; 0x8c8 <write_cmd>
     90a:	83 e1       	ldi	r24, 0x13	; 19
     90c:	0e 94 64 04 	call	0x8c8	; 0x8c8 <write_cmd>
     910:	86 e0       	ldi	r24, 0x06	; 6
     912:	0e 94 64 04 	call	0x8c8	; 0x8c8 <write_cmd>
     916:	82 ec       	ldi	r24, 0xC2	; 194
     918:	0e 94 64 04 	call	0x8c8	; 0x8c8 <write_cmd>
     91c:	80 e2       	ldi	r24, 0x20	; 32
     91e:	0e 94 64 04 	call	0x8c8	; 0x8c8 <write_cmd>
     922:	89 e0       	ldi	r24, 0x09	; 9
     924:	0e 94 64 04 	call	0x8c8	; 0x8c8 <write_cmd>
     928:	80 e8       	ldi	r24, 0x80	; 128
     92a:	0e 94 64 04 	call	0x8c8	; 0x8c8 <write_cmd>
     92e:	80 e4       	ldi	r24, 0x40	; 64
     930:	0e 94 64 04 	call	0x8c8	; 0x8c8 <write_cmd>
     934:	c8 ef       	ldi	r28, 0xF8	; 248
     936:	d1 e0       	ldi	r29, 0x01	; 1
     938:	61 e0       	ldi	r22, 0x01	; 1
     93a:	80 e0       	ldi	r24, 0x00	; 0
     93c:	0e 94 48 04 	call	0x890	; 0x890 <write>
     940:	21 97       	sbiw	r28, 0x01	; 1
     942:	d1 f7       	brne	.-12     	; 0x938 <__stack+0x39>
     944:	88 e0       	ldi	r24, 0x08	; 8
     946:	0e 94 64 04 	call	0x8c8	; 0x8c8 <write_cmd>
     94a:	8c e0       	ldi	r24, 0x0C	; 12
     94c:	df 91       	pop	r29
     94e:	cf 91       	pop	r28
     950:	0c 94 64 04 	jmp	0x8c8	; 0x8c8 <write_cmd>

00000954 <nokia_lcd_clear>:
     954:	80 e8       	ldi	r24, 0x80	; 128
     956:	0e 94 64 04 	call	0x8c8	; 0x8c8 <write_cmd>
     95a:	80 e4       	ldi	r24, 0x40	; 64
     95c:	0e 94 64 04 	call	0x8c8	; 0x8c8 <write_cmd>
     960:	10 92 24 03 	sts	0x0324, r1	; 0x800324 <nokia_lcd+0x1f8>
     964:	10 92 25 03 	sts	0x0325, r1	; 0x800325 <nokia_lcd+0x1f9>
     968:	88 ef       	ldi	r24, 0xF8	; 248
     96a:	91 e0       	ldi	r25, 0x01	; 1
     96c:	ec e2       	ldi	r30, 0x2C	; 44
     96e:	f1 e0       	ldi	r31, 0x01	; 1
     970:	df 01       	movw	r26, r30
     972:	9c 01       	movw	r18, r24
     974:	1d 92       	st	X+, r1
     976:	21 50       	subi	r18, 0x01	; 1
     978:	30 40       	sbci	r19, 0x00	; 0
     97a:	e1 f7       	brne	.-8      	; 0x974 <nokia_lcd_clear+0x20>
     97c:	08 95       	ret

0000097e <nokia_lcd_power>:
     97e:	81 11       	cpse	r24, r1
     980:	02 c0       	rjmp	.+4      	; 0x986 <nokia_lcd_power+0x8>
     982:	84 e2       	ldi	r24, 0x24	; 36
     984:	01 c0       	rjmp	.+2      	; 0x988 <nokia_lcd_power+0xa>
     986:	80 e2       	ldi	r24, 0x20	; 32
     988:	0c 94 64 04 	jmp	0x8c8	; 0x8c8 <write_cmd>

0000098c <nokia_lcd_set_pixel>:
     98c:	96 2f       	mov	r25, r22
     98e:	96 95       	lsr	r25
     990:	96 95       	lsr	r25
     992:	96 95       	lsr	r25
     994:	e8 2f       	mov	r30, r24
     996:	f0 e0       	ldi	r31, 0x00	; 0
     998:	84 e5       	ldi	r24, 0x54	; 84
     99a:	98 9f       	mul	r25, r24
     99c:	e0 0d       	add	r30, r0
     99e:	f1 1d       	adc	r31, r1
     9a0:	11 24       	eor	r1, r1
     9a2:	e4 5d       	subi	r30, 0xD4	; 212
     9a4:	fe 4f       	sbci	r31, 0xFE	; 254
     9a6:	67 70       	andi	r22, 0x07	; 7
     9a8:	81 e0       	ldi	r24, 0x01	; 1
     9aa:	90 e0       	ldi	r25, 0x00	; 0
     9ac:	01 c0       	rjmp	.+2      	; 0x9b0 <nokia_lcd_set_pixel+0x24>
     9ae:	88 0f       	add	r24, r24
     9b0:	6a 95       	dec	r22
     9b2:	ea f7       	brpl	.-6      	; 0x9ae <nokia_lcd_set_pixel+0x22>
     9b4:	44 23       	and	r20, r20
     9b6:	19 f0       	breq	.+6      	; 0x9be <nokia_lcd_set_pixel+0x32>
     9b8:	90 81       	ld	r25, Z
     9ba:	89 2b       	or	r24, r25
     9bc:	03 c0       	rjmp	.+6      	; 0x9c4 <nokia_lcd_set_pixel+0x38>
     9be:	80 95       	com	r24
     9c0:	90 81       	ld	r25, Z
     9c2:	89 23       	and	r24, r25
     9c4:	80 83       	st	Z, r24
     9c6:	08 95       	ret

000009c8 <nokia_lcd_write_char>:
     9c8:	8f 92       	push	r8
     9ca:	9f 92       	push	r9
     9cc:	af 92       	push	r10
     9ce:	bf 92       	push	r11
     9d0:	df 92       	push	r13
     9d2:	ef 92       	push	r14
     9d4:	ff 92       	push	r15
     9d6:	0f 93       	push	r16
     9d8:	1f 93       	push	r17
     9da:	cf 93       	push	r28
     9dc:	df 93       	push	r29
     9de:	00 d0       	rcall	.+0      	; 0x9e0 <nokia_lcd_write_char+0x18>
     9e0:	00 d0       	rcall	.+0      	; 0x9e2 <nokia_lcd_write_char+0x1a>
     9e2:	1f 92       	push	r1
     9e4:	cd b7       	in	r28, 0x3d	; 61
     9e6:	de b7       	in	r29, 0x3e	; 62
     9e8:	f6 2e       	mov	r15, r22
     9ea:	28 2f       	mov	r18, r24
     9ec:	08 2e       	mov	r0, r24
     9ee:	00 0c       	add	r0, r0
     9f0:	33 0b       	sbc	r19, r19
     9f2:	80 32       	cpi	r24, 0x20	; 32
     9f4:	6c f0       	brlt	.+26     	; 0xa10 <nokia_lcd_write_char+0x48>
     9f6:	20 52       	subi	r18, 0x20	; 32
     9f8:	31 09       	sbc	r19, r1
     9fa:	85 e0       	ldi	r24, 0x05	; 5
     9fc:	82 9f       	mul	r24, r18
     9fe:	b0 01       	movw	r22, r0
     a00:	83 9f       	mul	r24, r19
     a02:	70 0d       	add	r23, r0
     a04:	11 24       	eor	r1, r1
     a06:	68 59       	subi	r22, 0x98	; 152
     a08:	7f 4f       	sbci	r23, 0xFF	; 255
     a0a:	45 e0       	ldi	r20, 0x05	; 5
     a0c:	50 e0       	ldi	r21, 0x00	; 0
     a0e:	0e c0       	rjmp	.+28     	; 0xa2c <nokia_lcd_write_char+0x64>
     a10:	22 0f       	add	r18, r18
     a12:	33 1f       	adc	r19, r19
     a14:	f9 01       	movw	r30, r18
     a16:	ea 5d       	subi	r30, 0xDA	; 218
     a18:	fc 4f       	sbci	r31, 0xFC	; 252
     a1a:	00 81       	ld	r16, Z
     a1c:	11 81       	ldd	r17, Z+1	; 0x01
     a1e:	01 15       	cp	r16, r1
     a20:	11 05       	cpc	r17, r1
     a22:	59 f4       	brne	.+22     	; 0xa3a <nokia_lcd_write_char+0x72>
     a24:	45 e0       	ldi	r20, 0x05	; 5
     a26:	50 e0       	ldi	r21, 0x00	; 0
     a28:	68 e6       	ldi	r22, 0x68	; 104
     a2a:	70 e0       	ldi	r23, 0x00	; 0
     a2c:	ce 01       	movw	r24, r28
     a2e:	01 96       	adiw	r24, 0x01	; 1
     a30:	0e 94 51 0e 	call	0x1ca2	; 0x1ca2 <memcpy_P>
     a34:	8e 01       	movw	r16, r28
     a36:	0f 5f       	subi	r16, 0xFF	; 255
     a38:	1f 4f       	sbci	r17, 0xFF	; 255
     a3a:	85 e0       	ldi	r24, 0x05	; 5
     a3c:	f8 9e       	mul	r15, r24
     a3e:	50 01       	movw	r10, r0
     a40:	11 24       	eor	r1, r1
     a42:	97 e0       	ldi	r25, 0x07	; 7
     a44:	f9 9e       	mul	r15, r25
     a46:	40 01       	movw	r8, r0
     a48:	11 24       	eor	r1, r1
     a4a:	d1 2c       	mov	r13, r1
     a4c:	8d 2d       	mov	r24, r13
     a4e:	90 e0       	ldi	r25, 0x00	; 0
     a50:	8a 15       	cp	r24, r10
     a52:	9b 05       	cpc	r25, r11
     a54:	44 f5       	brge	.+80     	; 0xaa6 <nokia_lcd_write_char+0xde>
     a56:	e1 2c       	mov	r14, r1
     a58:	8e 2d       	mov	r24, r14
     a5a:	90 e0       	ldi	r25, 0x00	; 0
     a5c:	88 15       	cp	r24, r8
     a5e:	99 05       	cpc	r25, r9
     a60:	04 f5       	brge	.+64     	; 0xaa2 <nokia_lcd_write_char+0xda>
     a62:	8d 2d       	mov	r24, r13
     a64:	6f 2d       	mov	r22, r15
     a66:	0e 94 bb 0b 	call	0x1776	; 0x1776 <__udivmodqi4>
     a6a:	f8 01       	movw	r30, r16
     a6c:	e8 0f       	add	r30, r24
     a6e:	f1 1d       	adc	r31, r1
     a70:	20 81       	ld	r18, Z
     a72:	30 e0       	ldi	r19, 0x00	; 0
     a74:	8e 2d       	mov	r24, r14
     a76:	0e 94 bb 0b 	call	0x1776	; 0x1776 <__udivmodqi4>
     a7a:	02 c0       	rjmp	.+4      	; 0xa80 <nokia_lcd_write_char+0xb8>
     a7c:	35 95       	asr	r19
     a7e:	27 95       	ror	r18
     a80:	8a 95       	dec	r24
     a82:	e2 f7       	brpl	.-8      	; 0xa7c <nokia_lcd_write_char+0xb4>
     a84:	60 91 25 03 	lds	r22, 0x0325	; 0x800325 <nokia_lcd+0x1f9>
     a88:	80 91 24 03 	lds	r24, 0x0324	; 0x800324 <nokia_lcd+0x1f8>
     a8c:	6e 0d       	add	r22, r14
     a8e:	20 ff       	sbrs	r18, 0
     a90:	02 c0       	rjmp	.+4      	; 0xa96 <nokia_lcd_write_char+0xce>
     a92:	41 e0       	ldi	r20, 0x01	; 1
     a94:	01 c0       	rjmp	.+2      	; 0xa98 <nokia_lcd_write_char+0xd0>
     a96:	40 e0       	ldi	r20, 0x00	; 0
     a98:	8d 0d       	add	r24, r13
     a9a:	0e 94 c6 04 	call	0x98c	; 0x98c <nokia_lcd_set_pixel>
     a9e:	e3 94       	inc	r14
     aa0:	db cf       	rjmp	.-74     	; 0xa58 <nokia_lcd_write_char+0x90>
     aa2:	d3 94       	inc	r13
     aa4:	d3 cf       	rjmp	.-90     	; 0xa4c <nokia_lcd_write_char+0x84>
     aa6:	80 91 24 03 	lds	r24, 0x0324	; 0x800324 <nokia_lcd+0x1f8>
     aaa:	91 e0       	ldi	r25, 0x01	; 1
     aac:	98 0f       	add	r25, r24
     aae:	8f 2d       	mov	r24, r15
     ab0:	88 0f       	add	r24, r24
     ab2:	88 0f       	add	r24, r24
     ab4:	8f 0d       	add	r24, r15
     ab6:	89 0f       	add	r24, r25
     ab8:	84 35       	cpi	r24, 0x54	; 84
     aba:	18 f4       	brcc	.+6      	; 0xac2 <nokia_lcd_write_char+0xfa>
     abc:	80 93 24 03 	sts	0x0324, r24	; 0x800324 <nokia_lcd+0x1f8>
     ac0:	0b c0       	rjmp	.+22     	; 0xad8 <nokia_lcd_write_char+0x110>
     ac2:	10 92 24 03 	sts	0x0324, r1	; 0x800324 <nokia_lcd+0x1f8>
     ac6:	80 91 25 03 	lds	r24, 0x0325	; 0x800325 <nokia_lcd+0x1f9>
     aca:	8f 5f       	subi	r24, 0xFF	; 255
     acc:	97 e0       	ldi	r25, 0x07	; 7
     ace:	f9 9e       	mul	r15, r25
     ad0:	80 0d       	add	r24, r0
     ad2:	11 24       	eor	r1, r1
     ad4:	80 93 25 03 	sts	0x0325, r24	; 0x800325 <nokia_lcd+0x1f9>
     ad8:	80 91 25 03 	lds	r24, 0x0325	; 0x800325 <nokia_lcd+0x1f9>
     adc:	80 33       	cpi	r24, 0x30	; 48
     ade:	20 f0       	brcs	.+8      	; 0xae8 <nokia_lcd_write_char+0x120>
     ae0:	10 92 24 03 	sts	0x0324, r1	; 0x800324 <nokia_lcd+0x1f8>
     ae4:	10 92 25 03 	sts	0x0325, r1	; 0x800325 <nokia_lcd+0x1f9>
     ae8:	0f 90       	pop	r0
     aea:	0f 90       	pop	r0
     aec:	0f 90       	pop	r0
     aee:	0f 90       	pop	r0
     af0:	0f 90       	pop	r0
     af2:	df 91       	pop	r29
     af4:	cf 91       	pop	r28
     af6:	1f 91       	pop	r17
     af8:	0f 91       	pop	r16
     afa:	ff 90       	pop	r15
     afc:	ef 90       	pop	r14
     afe:	df 90       	pop	r13
     b00:	bf 90       	pop	r11
     b02:	af 90       	pop	r10
     b04:	9f 90       	pop	r9
     b06:	8f 90       	pop	r8
     b08:	08 95       	ret

00000b0a <nokia_lcd_custom>:
     b0a:	80 32       	cpi	r24, 0x20	; 32
     b0c:	3c f4       	brge	.+14     	; 0xb1c <nokia_lcd_custom+0x12>
     b0e:	e8 2f       	mov	r30, r24
     b10:	ee 0f       	add	r30, r30
     b12:	ff 0b       	sbc	r31, r31
     b14:	ea 5d       	subi	r30, 0xDA	; 218
     b16:	fc 4f       	sbci	r31, 0xFC	; 252
     b18:	71 83       	std	Z+1, r23	; 0x01
     b1a:	60 83       	st	Z, r22
     b1c:	08 95       	ret

00000b1e <nokia_lcd_write_string>:
     b1e:	1f 93       	push	r17
     b20:	cf 93       	push	r28
     b22:	df 93       	push	r29
     b24:	16 2f       	mov	r17, r22
     b26:	ec 01       	movw	r28, r24
     b28:	89 91       	ld	r24, Y+
     b2a:	88 23       	and	r24, r24
     b2c:	21 f0       	breq	.+8      	; 0xb36 <nokia_lcd_write_string+0x18>
     b2e:	61 2f       	mov	r22, r17
     b30:	0e 94 e4 04 	call	0x9c8	; 0x9c8 <nokia_lcd_write_char>
     b34:	f9 cf       	rjmp	.-14     	; 0xb28 <nokia_lcd_write_string+0xa>
     b36:	df 91       	pop	r29
     b38:	cf 91       	pop	r28
     b3a:	1f 91       	pop	r17
     b3c:	08 95       	ret

00000b3e <nokia_lcd_set_cursor>:
     b3e:	80 93 24 03 	sts	0x0324, r24	; 0x800324 <nokia_lcd+0x1f8>
     b42:	60 93 25 03 	sts	0x0325, r22	; 0x800325 <nokia_lcd+0x1f9>
     b46:	08 95       	ret

00000b48 <nokia_lcd_render>:
     b48:	cf 93       	push	r28
     b4a:	df 93       	push	r29
     b4c:	80 e8       	ldi	r24, 0x80	; 128
     b4e:	0e 94 64 04 	call	0x8c8	; 0x8c8 <write_cmd>
     b52:	80 e4       	ldi	r24, 0x40	; 64
     b54:	0e 94 64 04 	call	0x8c8	; 0x8c8 <write_cmd>
     b58:	cc e2       	ldi	r28, 0x2C	; 44
     b5a:	d1 e0       	ldi	r29, 0x01	; 1
     b5c:	61 e0       	ldi	r22, 0x01	; 1
     b5e:	89 91       	ld	r24, Y+
     b60:	0e 94 48 04 	call	0x890	; 0x890 <write>
     b64:	83 e0       	ldi	r24, 0x03	; 3
     b66:	c4 32       	cpi	r28, 0x24	; 36
     b68:	d8 07       	cpc	r29, r24
     b6a:	c1 f7       	brne	.-16     	; 0xb5c <nokia_lcd_render+0x14>
     b6c:	df 91       	pop	r29
     b6e:	cf 91       	pop	r28
     b70:	08 95       	ret

00000b72 <nokia_lcd_drawline>:
     b72:	4f 92       	push	r4
     b74:	5f 92       	push	r5
     b76:	6f 92       	push	r6
     b78:	7f 92       	push	r7
     b7a:	8f 92       	push	r8
     b7c:	9f 92       	push	r9
     b7e:	af 92       	push	r10
     b80:	bf 92       	push	r11
     b82:	cf 92       	push	r12
     b84:	df 92       	push	r13
     b86:	ef 92       	push	r14
     b88:	ff 92       	push	r15
     b8a:	cf 93       	push	r28
     b8c:	df 93       	push	r29
     b8e:	cd b7       	in	r28, 0x3d	; 61
     b90:	de b7       	in	r29, 0x3e	; 62
     b92:	2e 97       	sbiw	r28, 0x0e	; 14
     b94:	0f b6       	in	r0, 0x3f	; 63
     b96:	f8 94       	cli
     b98:	de bf       	out	0x3e, r29	; 62
     b9a:	0f be       	out	0x3f, r0	; 63
     b9c:	cd bf       	out	0x3d, r28	; 61
     b9e:	8d 87       	std	Y+13, r24	; 0x0d
     ba0:	69 87       	std	Y+9, r22	; 0x09
     ba2:	f2 2e       	mov	r15, r18
     ba4:	64 2f       	mov	r22, r20
     ba6:	70 e0       	ldi	r23, 0x00	; 0
     ba8:	68 1b       	sub	r22, r24
     baa:	71 09       	sbc	r23, r1
     bac:	07 2e       	mov	r0, r23
     bae:	00 0c       	add	r0, r0
     bb0:	88 0b       	sbc	r24, r24
     bb2:	99 0b       	sbc	r25, r25
     bb4:	0e 94 40 0d 	call	0x1a80	; 0x1a80 <__floatsisf>
     bb8:	4b 01       	movw	r8, r22
     bba:	5c 01       	movw	r10, r24
     bbc:	6f 2d       	mov	r22, r15
     bbe:	70 e0       	ldi	r23, 0x00	; 0
     bc0:	29 85       	ldd	r18, Y+9	; 0x09
     bc2:	62 1b       	sub	r22, r18
     bc4:	71 09       	sbc	r23, r1
     bc6:	07 2e       	mov	r0, r23
     bc8:	00 0c       	add	r0, r0
     bca:	88 0b       	sbc	r24, r24
     bcc:	99 0b       	sbc	r25, r25
     bce:	0e 94 40 0d 	call	0x1a80	; 0x1a80 <__floatsisf>
     bd2:	6b 01       	movw	r12, r22
     bd4:	7c 01       	movw	r14, r24
     bd6:	24 01       	movw	r4, r8
     bd8:	35 01       	movw	r6, r10
     bda:	e8 94       	clt
     bdc:	77 f8       	bld	r7, 7
     bde:	dc 01       	movw	r26, r24
     be0:	cb 01       	movw	r24, r22
     be2:	bf 77       	andi	r27, 0x7F	; 127
     be4:	89 83       	std	Y+1, r24	; 0x01
     be6:	9a 83       	std	Y+2, r25	; 0x02
     be8:	ab 83       	std	Y+3, r26	; 0x03
     bea:	bc 83       	std	Y+4, r27	; 0x04
     bec:	9c 01       	movw	r18, r24
     bee:	ad 01       	movw	r20, r26
     bf0:	c3 01       	movw	r24, r6
     bf2:	b2 01       	movw	r22, r4
     bf4:	0e 94 cc 0d 	call	0x1b98	; 0x1b98 <__gesf2>
     bf8:	87 ff       	sbrs	r24, 7
     bfa:	04 c0       	rjmp	.+8      	; 0xc04 <nokia_lcd_drawline+0x92>
     bfc:	49 80       	ldd	r4, Y+1	; 0x01
     bfe:	5a 80       	ldd	r5, Y+2	; 0x02
     c00:	6b 80       	ldd	r6, Y+3	; 0x03
     c02:	7c 80       	ldd	r7, Y+4	; 0x04
     c04:	a3 01       	movw	r20, r6
     c06:	92 01       	movw	r18, r4
     c08:	c5 01       	movw	r24, r10
     c0a:	b4 01       	movw	r22, r8
     c0c:	0e 94 9d 0c 	call	0x193a	; 0x193a <__divsf3>
     c10:	69 83       	std	Y+1, r22	; 0x01
     c12:	7a 83       	std	Y+2, r23	; 0x02
     c14:	8b 83       	std	Y+3, r24	; 0x03
     c16:	9c 83       	std	Y+4, r25	; 0x04
     c18:	a3 01       	movw	r20, r6
     c1a:	92 01       	movw	r18, r4
     c1c:	c7 01       	movw	r24, r14
     c1e:	b6 01       	movw	r22, r12
     c20:	0e 94 9d 0c 	call	0x193a	; 0x193a <__divsf3>
     c24:	6d 83       	std	Y+5, r22	; 0x05
     c26:	7e 83       	std	Y+6, r23	; 0x06
     c28:	8f 83       	std	Y+7, r24	; 0x07
     c2a:	98 87       	std	Y+8, r25	; 0x08
     c2c:	ad 85       	ldd	r26, Y+13	; 0x0d
     c2e:	6a 2f       	mov	r22, r26
     c30:	70 e0       	ldi	r23, 0x00	; 0
     c32:	80 e0       	ldi	r24, 0x00	; 0
     c34:	90 e0       	ldi	r25, 0x00	; 0
     c36:	0e 94 3e 0d 	call	0x1a7c	; 0x1a7c <__floatunsisf>
     c3a:	6b 01       	movw	r12, r22
     c3c:	7c 01       	movw	r14, r24
     c3e:	b9 85       	ldd	r27, Y+9	; 0x09
     c40:	6b 2f       	mov	r22, r27
     c42:	70 e0       	ldi	r23, 0x00	; 0
     c44:	80 e0       	ldi	r24, 0x00	; 0
     c46:	90 e0       	ldi	r25, 0x00	; 0
     c48:	0e 94 3e 0d 	call	0x1a7c	; 0x1a7c <__floatunsisf>
     c4c:	4b 01       	movw	r8, r22
     c4e:	5c 01       	movw	r10, r24
     c50:	21 e0       	ldi	r18, 0x01	; 1
     c52:	30 e0       	ldi	r19, 0x00	; 0
     c54:	3e 87       	std	Y+14, r19	; 0x0e
     c56:	2d 87       	std	Y+13, r18	; 0x0d
     c58:	ad 85       	ldd	r26, Y+13	; 0x0d
     c5a:	be 85       	ldd	r27, Y+14	; 0x0e
     c5c:	bd 01       	movw	r22, r26
     c5e:	bb 0f       	add	r27, r27
     c60:	88 0b       	sbc	r24, r24
     c62:	99 0b       	sbc	r25, r25
     c64:	0e 94 40 0d 	call	0x1a80	; 0x1a80 <__floatsisf>
     c68:	9b 01       	movw	r18, r22
     c6a:	ac 01       	movw	r20, r24
     c6c:	c3 01       	movw	r24, r6
     c6e:	b2 01       	movw	r22, r4
     c70:	0e 94 cc 0d 	call	0x1b98	; 0x1b98 <__gesf2>
     c74:	87 fd       	sbrc	r24, 7
     c76:	2c c0       	rjmp	.+88     	; 0xcd0 <nokia_lcd_drawline+0x15e>
     c78:	c5 01       	movw	r24, r10
     c7a:	b4 01       	movw	r22, r8
     c7c:	0e 94 0f 0d 	call	0x1a1e	; 0x1a1e <__fixunssfsi>
     c80:	69 87       	std	Y+9, r22	; 0x09
     c82:	7a 87       	std	Y+10, r23	; 0x0a
     c84:	8b 87       	std	Y+11, r24	; 0x0b
     c86:	9c 87       	std	Y+12, r25	; 0x0c
     c88:	c7 01       	movw	r24, r14
     c8a:	b6 01       	movw	r22, r12
     c8c:	0e 94 0f 0d 	call	0x1a1e	; 0x1a1e <__fixunssfsi>
     c90:	dc 01       	movw	r26, r24
     c92:	cb 01       	movw	r24, r22
     c94:	41 e0       	ldi	r20, 0x01	; 1
     c96:	69 85       	ldd	r22, Y+9	; 0x09
     c98:	0e 94 c6 04 	call	0x98c	; 0x98c <nokia_lcd_set_pixel>
     c9c:	29 81       	ldd	r18, Y+1	; 0x01
     c9e:	3a 81       	ldd	r19, Y+2	; 0x02
     ca0:	4b 81       	ldd	r20, Y+3	; 0x03
     ca2:	5c 81       	ldd	r21, Y+4	; 0x04
     ca4:	c7 01       	movw	r24, r14
     ca6:	b6 01       	movw	r22, r12
     ca8:	0e 94 31 0c 	call	0x1862	; 0x1862 <__addsf3>
     cac:	6b 01       	movw	r12, r22
     cae:	7c 01       	movw	r14, r24
     cb0:	2d 81       	ldd	r18, Y+5	; 0x05
     cb2:	3e 81       	ldd	r19, Y+6	; 0x06
     cb4:	4f 81       	ldd	r20, Y+7	; 0x07
     cb6:	58 85       	ldd	r21, Y+8	; 0x08
     cb8:	c5 01       	movw	r24, r10
     cba:	b4 01       	movw	r22, r8
     cbc:	0e 94 31 0c 	call	0x1862	; 0x1862 <__addsf3>
     cc0:	4b 01       	movw	r8, r22
     cc2:	5c 01       	movw	r10, r24
     cc4:	8d 85       	ldd	r24, Y+13	; 0x0d
     cc6:	9e 85       	ldd	r25, Y+14	; 0x0e
     cc8:	01 96       	adiw	r24, 0x01	; 1
     cca:	9e 87       	std	Y+14, r25	; 0x0e
     ccc:	8d 87       	std	Y+13, r24	; 0x0d
     cce:	c4 cf       	rjmp	.-120    	; 0xc58 <nokia_lcd_drawline+0xe6>
     cd0:	2e 96       	adiw	r28, 0x0e	; 14
     cd2:	0f b6       	in	r0, 0x3f	; 63
     cd4:	f8 94       	cli
     cd6:	de bf       	out	0x3e, r29	; 62
     cd8:	0f be       	out	0x3f, r0	; 63
     cda:	cd bf       	out	0x3d, r28	; 61
     cdc:	df 91       	pop	r29
     cde:	cf 91       	pop	r28
     ce0:	ff 90       	pop	r15
     ce2:	ef 90       	pop	r14
     ce4:	df 90       	pop	r13
     ce6:	cf 90       	pop	r12
     ce8:	bf 90       	pop	r11
     cea:	af 90       	pop	r10
     cec:	9f 90       	pop	r9
     cee:	8f 90       	pop	r8
     cf0:	7f 90       	pop	r7
     cf2:	6f 90       	pop	r6
     cf4:	5f 90       	pop	r5
     cf6:	4f 90       	pop	r4
     cf8:	08 95       	ret

00000cfa <nokia_lcd_drawrect>:
     cfa:	0f 93       	push	r16
     cfc:	1f 93       	push	r17
     cfe:	cf 93       	push	r28
     d00:	df 93       	push	r29
     d02:	c8 2f       	mov	r28, r24
     d04:	16 2f       	mov	r17, r22
     d06:	04 2f       	mov	r16, r20
     d08:	d2 2f       	mov	r29, r18
     d0a:	26 2f       	mov	r18, r22
     d0c:	0e 94 b9 05 	call	0xb72	; 0xb72 <nokia_lcd_drawline>
     d10:	2d 2f       	mov	r18, r29
     d12:	40 2f       	mov	r20, r16
     d14:	61 2f       	mov	r22, r17
     d16:	80 2f       	mov	r24, r16
     d18:	0e 94 b9 05 	call	0xb72	; 0xb72 <nokia_lcd_drawline>
     d1c:	2d 2f       	mov	r18, r29
     d1e:	4c 2f       	mov	r20, r28
     d20:	6d 2f       	mov	r22, r29
     d22:	80 2f       	mov	r24, r16
     d24:	0e 94 b9 05 	call	0xb72	; 0xb72 <nokia_lcd_drawline>
     d28:	21 2f       	mov	r18, r17
     d2a:	4c 2f       	mov	r20, r28
     d2c:	6d 2f       	mov	r22, r29
     d2e:	8c 2f       	mov	r24, r28
     d30:	df 91       	pop	r29
     d32:	cf 91       	pop	r28
     d34:	1f 91       	pop	r17
     d36:	0f 91       	pop	r16
     d38:	0c 94 b9 05 	jmp	0xb72	; 0xb72 <nokia_lcd_drawline>

00000d3c <nokia_lcd_drawcircle>:
     d3c:	7f 92       	push	r7
     d3e:	8f 92       	push	r8
     d40:	9f 92       	push	r9
     d42:	af 92       	push	r10
     d44:	bf 92       	push	r11
     d46:	cf 92       	push	r12
     d48:	df 92       	push	r13
     d4a:	ef 92       	push	r14
     d4c:	ff 92       	push	r15
     d4e:	0f 93       	push	r16
     d50:	1f 93       	push	r17
     d52:	cf 93       	push	r28
     d54:	df 93       	push	r29
     d56:	d8 2e       	mov	r13, r24
     d58:	c6 2e       	mov	r12, r22
     d5a:	c4 2f       	mov	r28, r20
     d5c:	d0 e0       	ldi	r29, 0x00	; 0
     d5e:	e1 2c       	mov	r14, r1
     d60:	f1 2c       	mov	r15, r1
     d62:	00 e0       	ldi	r16, 0x00	; 0
     d64:	10 e0       	ldi	r17, 0x00	; 0
     d66:	41 e0       	ldi	r20, 0x01	; 1
     d68:	ac 2c       	mov	r10, r12
     d6a:	a0 0e       	add	r10, r16
     d6c:	6a 2d       	mov	r22, r10
     d6e:	bc 2e       	mov	r11, r28
     d70:	bd 0c       	add	r11, r13
     d72:	8b 2d       	mov	r24, r11
     d74:	0e 94 c6 04 	call	0x98c	; 0x98c <nokia_lcd_set_pixel>
     d78:	41 e0       	ldi	r20, 0x01	; 1
     d7a:	8c 2e       	mov	r8, r28
     d7c:	8c 0c       	add	r8, r12
     d7e:	68 2d       	mov	r22, r8
     d80:	9d 2c       	mov	r9, r13
     d82:	90 0e       	add	r9, r16
     d84:	89 2d       	mov	r24, r9
     d86:	0e 94 c6 04 	call	0x98c	; 0x98c <nokia_lcd_set_pixel>
     d8a:	41 e0       	ldi	r20, 0x01	; 1
     d8c:	68 2d       	mov	r22, r8
     d8e:	7d 2c       	mov	r7, r13
     d90:	70 1a       	sub	r7, r16
     d92:	87 2d       	mov	r24, r7
     d94:	0e 94 c6 04 	call	0x98c	; 0x98c <nokia_lcd_set_pixel>
     d98:	41 e0       	ldi	r20, 0x01	; 1
     d9a:	6a 2d       	mov	r22, r10
     d9c:	8d 2c       	mov	r8, r13
     d9e:	8c 1a       	sub	r8, r28
     da0:	88 2d       	mov	r24, r8
     da2:	0e 94 c6 04 	call	0x98c	; 0x98c <nokia_lcd_set_pixel>
     da6:	41 e0       	ldi	r20, 0x01	; 1
     da8:	ac 2c       	mov	r10, r12
     daa:	a0 1a       	sub	r10, r16
     dac:	6a 2d       	mov	r22, r10
     dae:	88 2d       	mov	r24, r8
     db0:	0e 94 c6 04 	call	0x98c	; 0x98c <nokia_lcd_set_pixel>
     db4:	41 e0       	ldi	r20, 0x01	; 1
     db6:	8c 2c       	mov	r8, r12
     db8:	8c 1a       	sub	r8, r28
     dba:	68 2d       	mov	r22, r8
     dbc:	87 2d       	mov	r24, r7
     dbe:	0e 94 c6 04 	call	0x98c	; 0x98c <nokia_lcd_set_pixel>
     dc2:	41 e0       	ldi	r20, 0x01	; 1
     dc4:	68 2d       	mov	r22, r8
     dc6:	89 2d       	mov	r24, r9
     dc8:	0e 94 c6 04 	call	0x98c	; 0x98c <nokia_lcd_set_pixel>
     dcc:	41 e0       	ldi	r20, 0x01	; 1
     dce:	6a 2d       	mov	r22, r10
     dd0:	8b 2d       	mov	r24, r11
     dd2:	0e 94 c6 04 	call	0x98c	; 0x98c <nokia_lcd_set_pixel>
     dd6:	1e 14       	cp	r1, r14
     dd8:	1f 04       	cpc	r1, r15
     dda:	5c f0       	brlt	.+22     	; 0xdf2 <nokia_lcd_drawcircle+0xb6>
     ddc:	0f 5f       	subi	r16, 0xFF	; 255
     dde:	1f 4f       	sbci	r17, 0xFF	; 255
     de0:	c8 01       	movw	r24, r16
     de2:	88 0f       	add	r24, r24
     de4:	99 1f       	adc	r25, r25
     de6:	01 96       	adiw	r24, 0x01	; 1
     de8:	e8 0e       	add	r14, r24
     dea:	f9 1e       	adc	r15, r25
     dec:	1e 14       	cp	r1, r14
     dee:	1f 04       	cpc	r1, r15
     df0:	3c f4       	brge	.+14     	; 0xe00 <nokia_lcd_drawcircle+0xc4>
     df2:	21 97       	sbiw	r28, 0x01	; 1
     df4:	ce 01       	movw	r24, r28
     df6:	88 0f       	add	r24, r24
     df8:	99 1f       	adc	r25, r25
     dfa:	01 96       	adiw	r24, 0x01	; 1
     dfc:	e8 1a       	sub	r14, r24
     dfe:	f9 0a       	sbc	r15, r25
     e00:	c0 17       	cp	r28, r16
     e02:	d1 07       	cpc	r29, r17
     e04:	0c f0       	brlt	.+2      	; 0xe08 <nokia_lcd_drawcircle+0xcc>
     e06:	af cf       	rjmp	.-162    	; 0xd66 <nokia_lcd_drawcircle+0x2a>
     e08:	df 91       	pop	r29
     e0a:	cf 91       	pop	r28
     e0c:	1f 91       	pop	r17
     e0e:	0f 91       	pop	r16
     e10:	ff 90       	pop	r15
     e12:	ef 90       	pop	r14
     e14:	df 90       	pop	r13
     e16:	cf 90       	pop	r12
     e18:	bf 90       	pop	r11
     e1a:	af 90       	pop	r10
     e1c:	9f 90       	pop	r9
     e1e:	8f 90       	pop	r8
     e20:	7f 90       	pop	r7
     e22:	08 95       	ret

00000e24 <time>:
     e24:	fc 01       	movw	r30, r24
     e26:	0f b6       	in	r0, 0x3f	; 63
     e28:	f8 94       	cli
     e2a:	60 91 66 03 	lds	r22, 0x0366	; 0x800366 <__system_time>
     e2e:	70 91 67 03 	lds	r23, 0x0367	; 0x800367 <__system_time+0x1>
     e32:	80 91 68 03 	lds	r24, 0x0368	; 0x800368 <__system_time+0x2>
     e36:	90 91 69 03 	lds	r25, 0x0369	; 0x800369 <__system_time+0x3>
     e3a:	0f be       	out	0x3f, r0	; 63
     e3c:	30 97       	sbiw	r30, 0x00	; 0
     e3e:	21 f0       	breq	.+8      	; 0xe48 <time+0x24>
     e40:	60 83       	st	Z, r22
     e42:	71 83       	std	Z+1, r23	; 0x01
     e44:	82 83       	std	Z+2, r24	; 0x02
     e46:	93 83       	std	Z+3, r25	; 0x03
     e48:	08 95       	ret

00000e4a <main>:
     e4a:	cf 93       	push	r28
     e4c:	df 93       	push	r29
     e4e:	cd b7       	in	r28, 0x3d	; 61
     e50:	de b7       	in	r29, 0x3e	; 62
     e52:	c3 53       	subi	r28, 0x33	; 51
     e54:	d1 40       	sbci	r29, 0x01	; 1
     e56:	0f b6       	in	r0, 0x3f	; 63
     e58:	f8 94       	cli
     e5a:	de bf       	out	0x3e, r29	; 62
     e5c:	0f be       	out	0x3f, r0	; 63
     e5e:	cd bf       	out	0x3d, r28	; 61
     e60:	0e 94 67 04 	call	0x8ce	; 0x8ce <nokia_lcd_init>
     e64:	0e 94 aa 04 	call	0x954	; 0x954 <nokia_lcd_clear>
     e68:	60 e0       	ldi	r22, 0x00	; 0
     e6a:	71 e0       	ldi	r23, 0x01	; 1
     e6c:	81 e0       	ldi	r24, 0x01	; 1
     e6e:	0e 94 85 05 	call	0xb0a	; 0xb0a <nokia_lcd_custom>
     e72:	56 98       	cbi	0x0a, 6	; 10
     e74:	57 98       	cbi	0x0a, 7	; 10
     e76:	20 98       	cbi	0x04, 0	; 4
     e78:	38 9a       	sbi	0x07, 0	; 7
     e7a:	85 e0       	ldi	r24, 0x05	; 5
     e7c:	e9 e0       	ldi	r30, 0x09	; 9
     e7e:	f1 e0       	ldi	r31, 0x01	; 1
     e80:	de 01       	movw	r26, r28
     e82:	a3 56       	subi	r26, 0x63	; 99
     e84:	bf 4f       	sbci	r27, 0xFF	; 255
     e86:	01 90       	ld	r0, Z+
     e88:	0d 92       	st	X+, r0
     e8a:	8a 95       	dec	r24
     e8c:	e1 f7       	brne	.-8      	; 0xe86 <main+0x3c>
     e8e:	be 01       	movw	r22, r28
     e90:	63 56       	subi	r22, 0x63	; 99
     e92:	7f 4f       	sbci	r23, 0xFF	; 255
     e94:	82 e0       	ldi	r24, 0x02	; 2
     e96:	0e 94 85 05 	call	0xb0a	; 0xb0a <nokia_lcd_custom>
     e9a:	85 e0       	ldi	r24, 0x05	; 5
     e9c:	ee e0       	ldi	r30, 0x0E	; 14
     e9e:	f1 e0       	ldi	r31, 0x01	; 1
     ea0:	de 01       	movw	r26, r28
     ea2:	a8 56       	subi	r26, 0x68	; 104
     ea4:	bf 4f       	sbci	r27, 0xFF	; 255
     ea6:	01 90       	ld	r0, Z+
     ea8:	0d 92       	st	X+, r0
     eaa:	8a 95       	dec	r24
     eac:	e1 f7       	brne	.-8      	; 0xea6 <main+0x5c>
     eae:	be 01       	movw	r22, r28
     eb0:	68 56       	subi	r22, 0x68	; 104
     eb2:	7f 4f       	sbci	r23, 0xFF	; 255
     eb4:	83 e0       	ldi	r24, 0x03	; 3
     eb6:	0e 94 85 05 	call	0xb0a	; 0xb0a <nokia_lcd_custom>
     eba:	85 e0       	ldi	r24, 0x05	; 5
     ebc:	e3 e1       	ldi	r30, 0x13	; 19
     ebe:	f1 e0       	ldi	r31, 0x01	; 1
     ec0:	de 01       	movw	r26, r28
     ec2:	ad 56       	subi	r26, 0x6D	; 109
     ec4:	bf 4f       	sbci	r27, 0xFF	; 255
     ec6:	01 90       	ld	r0, Z+
     ec8:	0d 92       	st	X+, r0
     eca:	8a 95       	dec	r24
     ecc:	e1 f7       	brne	.-8      	; 0xec6 <main+0x7c>
     ece:	be 01       	movw	r22, r28
     ed0:	6d 56       	subi	r22, 0x6D	; 109
     ed2:	7f 4f       	sbci	r23, 0xFF	; 255
     ed4:	84 e0       	ldi	r24, 0x04	; 4
     ed6:	0e 94 85 05 	call	0xb0a	; 0xb0a <nokia_lcd_custom>
     eda:	f8 94       	cli
     edc:	10 92 80 00 	sts	0x0080, r1	; 0x800080 <__TEXT_REGION_LENGTH__+0x7f8080>
     ee0:	10 92 81 00 	sts	0x0081, r1	; 0x800081 <__TEXT_REGION_LENGTH__+0x7f8081>
     ee4:	10 92 85 00 	sts	0x0085, r1	; 0x800085 <__TEXT_REGION_LENGTH__+0x7f8085>
     ee8:	10 92 84 00 	sts	0x0084, r1	; 0x800084 <__TEXT_REGION_LENGTH__+0x7f8084>
     eec:	10 92 89 00 	sts	0x0089, r1	; 0x800089 <__TEXT_REGION_LENGTH__+0x7f8089>
     ef0:	10 92 88 00 	sts	0x0088, r1	; 0x800088 <__TEXT_REGION_LENGTH__+0x7f8088>
     ef4:	80 91 81 00 	lds	r24, 0x0081	; 0x800081 <__TEXT_REGION_LENGTH__+0x7f8081>
     ef8:	88 60       	ori	r24, 0x08	; 8
     efa:	80 93 81 00 	sts	0x0081, r24	; 0x800081 <__TEXT_REGION_LENGTH__+0x7f8081>
     efe:	80 91 81 00 	lds	r24, 0x0081	; 0x800081 <__TEXT_REGION_LENGTH__+0x7f8081>
     f02:	85 60       	ori	r24, 0x05	; 5
     f04:	80 93 81 00 	sts	0x0081, r24	; 0x800081 <__TEXT_REGION_LENGTH__+0x7f8081>
     f08:	80 91 6f 00 	lds	r24, 0x006F	; 0x80006f <__TEXT_REGION_LENGTH__+0x7f806f>
     f0c:	82 60       	ori	r24, 0x02	; 2
     f0e:	80 93 6f 00 	sts	0x006F, r24	; 0x80006f <__TEXT_REGION_LENGTH__+0x7f806f>
     f12:	41 9a       	sbi	0x08, 1	; 8
     f14:	78 94       	sei
     f16:	1a 82       	std	Y+2, r1	; 0x02
     f18:	19 82       	std	Y+1, r1	; 0x01
     f1a:	18 86       	std	Y+8, r1	; 0x08
     f1c:	1f 82       	std	Y+7, r1	; 0x07
     f1e:	10 92 20 01 	sts	0x0120, r1	; 0x800120 <inicioTiro>
     f22:	10 92 21 01 	sts	0x0121, r1	; 0x800121 <inicioTiro+0x1>
     f26:	10 92 22 01 	sts	0x0122, r1	; 0x800122 <inicioTiro+0x2>
     f2a:	10 92 23 01 	sts	0x0123, r1	; 0x800123 <inicioTiro+0x3>
     f2e:	10 92 1c 01 	sts	0x011C, r1	; 0x80011c <inicioTiroInimigos>
     f32:	10 92 1d 01 	sts	0x011D, r1	; 0x80011d <inicioTiroInimigos+0x1>
     f36:	10 92 1e 01 	sts	0x011E, r1	; 0x80011e <inicioTiroInimigos+0x2>
     f3a:	10 92 1f 01 	sts	0x011F, r1	; 0x80011f <inicioTiroInimigos+0x3>
     f3e:	81 2c       	mov	r8, r1
     f40:	91 2c       	mov	r9, r1
     f42:	41 2c       	mov	r4, r1
     f44:	51 2c       	mov	r5, r1
     f46:	e1 2c       	mov	r14, r1
     f48:	f1 2c       	mov	r15, r1
     f4a:	c1 2c       	mov	r12, r1
     f4c:	d1 2c       	mov	r13, r1
     f4e:	a1 2c       	mov	r10, r1
     f50:	b1 2c       	mov	r11, r1
     f52:	61 2c       	mov	r6, r1
     f54:	71 2c       	mov	r7, r1
     f56:	00 e0       	ldi	r16, 0x00	; 0
     f58:	10 e0       	ldi	r17, 0x00	; 0
     f5a:	60 91 28 01 	lds	r22, 0x0128	; 0x800128 <tempo>
     f5e:	70 91 29 01 	lds	r23, 0x0129	; 0x800129 <tempo+0x1>
     f62:	80 91 2a 01 	lds	r24, 0x012A	; 0x80012a <tempo+0x2>
     f66:	90 91 2b 01 	lds	r25, 0x012B	; 0x80012b <tempo+0x3>
     f6a:	28 ec       	ldi	r18, 0xC8	; 200
     f6c:	3f ea       	ldi	r19, 0xAF	; 175
     f6e:	40 e0       	ldi	r20, 0x00	; 0
     f70:	50 e0       	ldi	r21, 0x00	; 0
     f72:	0e 94 db 0b 	call	0x17b6	; 0x17b6 <__divmodsi4>
     f76:	67 2b       	or	r22, r23
     f78:	68 2b       	or	r22, r24
     f7a:	69 2b       	or	r22, r25
     f7c:	09 f0       	breq	.+2      	; 0xf80 <main+0x136>
     f7e:	5f c0       	rjmp	.+190    	; 0x103e <main+0x1f4>
     f80:	1c 83       	std	Y+4, r17	; 0x04
     f82:	0b 83       	std	Y+3, r16	; 0x03
     f84:	7e 82       	std	Y+6, r7	; 0x06
     f86:	6d 82       	std	Y+5, r6	; 0x05
     f88:	ba 86       	std	Y+10, r11	; 0x0a
     f8a:	a9 86       	std	Y+9, r10	; 0x09
     f8c:	ed 96       	adiw	r28, 0x3d	; 61
     f8e:	df ae       	std	Y+63, r13	; 0x3f
     f90:	ce ae       	std	Y+62, r12	; 0x3e
     f92:	ed 97       	sbiw	r28, 0x3d	; 61
     f94:	c3 57       	subi	r28, 0x73	; 115
     f96:	df 4f       	sbci	r29, 0xFF	; 255
     f98:	f9 82       	std	Y+1, r15	; 0x01
     f9a:	e8 82       	st	Y, r14
     f9c:	cd 58       	subi	r28, 0x8D	; 141
     f9e:	d0 40       	sbci	r29, 0x00	; 0
     fa0:	c1 57       	subi	r28, 0x71	; 113
     fa2:	df 4f       	sbci	r29, 0xFF	; 255
     fa4:	59 82       	std	Y+1, r5	; 0x01
     fa6:	48 82       	st	Y, r4
     fa8:	cf 58       	subi	r28, 0x8F	; 143
     faa:	d0 40       	sbci	r29, 0x00	; 0
     fac:	cf 56       	subi	r28, 0x6F	; 111
     fae:	df 4f       	sbci	r29, 0xFF	; 255
     fb0:	99 82       	std	Y+1, r9	; 0x01
     fb2:	88 82       	st	Y, r8
     fb4:	c1 59       	subi	r28, 0x91	; 145
     fb6:	d0 40       	sbci	r29, 0x00	; 0
     fb8:	2d b7       	in	r18, 0x3d	; 61
     fba:	3e b7       	in	r19, 0x3e	; 62
     fbc:	22 59       	subi	r18, 0x92	; 146
     fbe:	31 09       	sbc	r19, r1
     fc0:	0f b6       	in	r0, 0x3f	; 63
     fc2:	f8 94       	cli
     fc4:	3e bf       	out	0x3e, r19	; 62
     fc6:	0f be       	out	0x3f, r0	; 63
     fc8:	2d bf       	out	0x3d, r18	; 61
     fca:	ad b7       	in	r26, 0x3d	; 61
     fcc:	be b7       	in	r27, 0x3e	; 62
     fce:	11 96       	adiw	r26, 0x01	; 1
     fd0:	82 e9       	ldi	r24, 0x92	; 146
     fd2:	fe 01       	movw	r30, r28
     fd4:	31 96       	adiw	r30, 0x01	; 1
     fd6:	01 90       	ld	r0, Z+
     fd8:	0d 92       	st	X+, r0
     fda:	8a 95       	dec	r24
     fdc:	e1 f7       	brne	.-8      	; 0xfd6 <main+0x18c>
     fde:	ce 01       	movw	r24, r28
     fe0:	8e 55       	subi	r24, 0x5E	; 94
     fe2:	9f 4f       	sbci	r25, 0xFF	; 255
     fe4:	0e 94 6b 02 	call	0x4d6	; 0x4d6 <invocaInimigo>
     fe8:	82 e9       	ldi	r24, 0x92	; 146
     fea:	fe 01       	movw	r30, r28
     fec:	ee 55       	subi	r30, 0x5E	; 94
     fee:	ff 4f       	sbci	r31, 0xFF	; 255
     ff0:	de 01       	movw	r26, r28
     ff2:	11 96       	adiw	r26, 0x01	; 1
     ff4:	01 90       	ld	r0, Z+
     ff6:	0d 92       	st	X+, r0
     ff8:	8a 95       	dec	r24
     ffa:	e1 f7       	brne	.-8      	; 0xff4 <main+0x1aa>
     ffc:	0b 81       	ldd	r16, Y+3	; 0x03
     ffe:	1c 81       	ldd	r17, Y+4	; 0x04
    1000:	6d 80       	ldd	r6, Y+5	; 0x05
    1002:	7e 80       	ldd	r7, Y+6	; 0x06
    1004:	a9 84       	ldd	r10, Y+9	; 0x09
    1006:	ba 84       	ldd	r11, Y+10	; 0x0a
    1008:	ed 96       	adiw	r28, 0x3d	; 61
    100a:	ce ac       	ldd	r12, Y+62	; 0x3e
    100c:	df ac       	ldd	r13, Y+63	; 0x3f
    100e:	ed 97       	sbiw	r28, 0x3d	; 61
    1010:	c3 57       	subi	r28, 0x73	; 115
    1012:	df 4f       	sbci	r29, 0xFF	; 255
    1014:	e8 80       	ld	r14, Y
    1016:	f9 80       	ldd	r15, Y+1	; 0x01
    1018:	cd 58       	subi	r28, 0x8D	; 141
    101a:	d0 40       	sbci	r29, 0x00	; 0
    101c:	c1 57       	subi	r28, 0x71	; 113
    101e:	df 4f       	sbci	r29, 0xFF	; 255
    1020:	48 80       	ld	r4, Y
    1022:	59 80       	ldd	r5, Y+1	; 0x01
    1024:	cf 58       	subi	r28, 0x8F	; 143
    1026:	d0 40       	sbci	r29, 0x00	; 0
    1028:	cf 56       	subi	r28, 0x6F	; 111
    102a:	df 4f       	sbci	r29, 0xFF	; 255
    102c:	88 80       	ld	r8, Y
    102e:	99 80       	ldd	r9, Y+1	; 0x01
    1030:	c1 59       	subi	r28, 0x91	; 145
    1032:	d0 40       	sbci	r29, 0x00	; 0
    1034:	0f b6       	in	r0, 0x3f	; 63
    1036:	f8 94       	cli
    1038:	de bf       	out	0x3e, r29	; 62
    103a:	0f be       	out	0x3f, r0	; 63
    103c:	cd bf       	out	0x3d, r28	; 61
    103e:	4f 9b       	sbis	0x09, 7	; 9
    1040:	6b c0       	rjmp	.+214    	; 0x1118 <main+0x2ce>
    1042:	00 32       	cpi	r16, 0x20	; 32
    1044:	11 05       	cpc	r17, r1
    1046:	11 f0       	breq	.+4      	; 0x104c <main+0x202>
    1048:	0c 5f       	subi	r16, 0xFC	; 252
    104a:	1f 4f       	sbci	r17, 0xFF	; 255
    104c:	1c 83       	std	Y+4, r17	; 0x04
    104e:	0b 83       	std	Y+3, r16	; 0x03
    1050:	7e 82       	std	Y+6, r7	; 0x06
    1052:	6d 82       	std	Y+5, r6	; 0x05
    1054:	ba 86       	std	Y+10, r11	; 0x0a
    1056:	a9 86       	std	Y+9, r10	; 0x09
    1058:	ed 96       	adiw	r28, 0x3d	; 61
    105a:	df ae       	std	Y+63, r13	; 0x3f
    105c:	ce ae       	std	Y+62, r12	; 0x3e
    105e:	ed 97       	sbiw	r28, 0x3d	; 61
    1060:	c3 57       	subi	r28, 0x73	; 115
    1062:	df 4f       	sbci	r29, 0xFF	; 255
    1064:	f9 82       	std	Y+1, r15	; 0x01
    1066:	e8 82       	st	Y, r14
    1068:	cd 58       	subi	r28, 0x8D	; 141
    106a:	d0 40       	sbci	r29, 0x00	; 0
    106c:	c1 57       	subi	r28, 0x71	; 113
    106e:	df 4f       	sbci	r29, 0xFF	; 255
    1070:	59 82       	std	Y+1, r5	; 0x01
    1072:	48 82       	st	Y, r4
    1074:	cf 58       	subi	r28, 0x8F	; 143
    1076:	d0 40       	sbci	r29, 0x00	; 0
    1078:	cf 56       	subi	r28, 0x6F	; 111
    107a:	df 4f       	sbci	r29, 0xFF	; 255
    107c:	99 82       	std	Y+1, r9	; 0x01
    107e:	88 82       	st	Y, r8
    1080:	c1 59       	subi	r28, 0x91	; 145
    1082:	d0 40       	sbci	r29, 0x00	; 0
    1084:	ad b7       	in	r26, 0x3d	; 61
    1086:	be b7       	in	r27, 0x3e	; 62
    1088:	a2 59       	subi	r26, 0x92	; 146
    108a:	b1 09       	sbc	r27, r1
    108c:	0f b6       	in	r0, 0x3f	; 63
    108e:	f8 94       	cli
    1090:	be bf       	out	0x3e, r27	; 62
    1092:	0f be       	out	0x3f, r0	; 63
    1094:	ad bf       	out	0x3d, r26	; 61
    1096:	11 96       	adiw	r26, 0x01	; 1
    1098:	82 e9       	ldi	r24, 0x92	; 146
    109a:	fe 01       	movw	r30, r28
    109c:	31 96       	adiw	r30, 0x01	; 1
    109e:	01 90       	ld	r0, Z+
    10a0:	0d 92       	st	X+, r0
    10a2:	8a 95       	dec	r24
    10a4:	e1 f7       	brne	.-8      	; 0x109e <main+0x254>
    10a6:	ce 01       	movw	r24, r28
    10a8:	8e 55       	subi	r24, 0x5E	; 94
    10aa:	9f 4f       	sbci	r25, 0xFF	; 255
    10ac:	0e 94 43 01 	call	0x286	; 0x286 <desenhaTela>
    10b0:	82 e9       	ldi	r24, 0x92	; 146
    10b2:	fe 01       	movw	r30, r28
    10b4:	ee 55       	subi	r30, 0x5E	; 94
    10b6:	ff 4f       	sbci	r31, 0xFF	; 255
    10b8:	de 01       	movw	r26, r28
    10ba:	11 96       	adiw	r26, 0x01	; 1
    10bc:	01 90       	ld	r0, Z+
    10be:	0d 92       	st	X+, r0
    10c0:	8a 95       	dec	r24
    10c2:	e1 f7       	brne	.-8      	; 0x10bc <main+0x272>
    10c4:	0b 81       	ldd	r16, Y+3	; 0x03
    10c6:	1c 81       	ldd	r17, Y+4	; 0x04
    10c8:	6d 80       	ldd	r6, Y+5	; 0x05
    10ca:	7e 80       	ldd	r7, Y+6	; 0x06
    10cc:	a9 84       	ldd	r10, Y+9	; 0x09
    10ce:	ba 84       	ldd	r11, Y+10	; 0x0a
    10d0:	ed 96       	adiw	r28, 0x3d	; 61
    10d2:	ce ac       	ldd	r12, Y+62	; 0x3e
    10d4:	df ac       	ldd	r13, Y+63	; 0x3f
    10d6:	ed 97       	sbiw	r28, 0x3d	; 61
    10d8:	c3 57       	subi	r28, 0x73	; 115
    10da:	df 4f       	sbci	r29, 0xFF	; 255
    10dc:	e8 80       	ld	r14, Y
    10de:	f9 80       	ldd	r15, Y+1	; 0x01
    10e0:	cd 58       	subi	r28, 0x8D	; 141
    10e2:	d0 40       	sbci	r29, 0x00	; 0
    10e4:	c1 57       	subi	r28, 0x71	; 113
    10e6:	df 4f       	sbci	r29, 0xFF	; 255
    10e8:	48 80       	ld	r4, Y
    10ea:	59 80       	ldd	r5, Y+1	; 0x01
    10ec:	cf 58       	subi	r28, 0x8F	; 143
    10ee:	d0 40       	sbci	r29, 0x00	; 0
    10f0:	cf 56       	subi	r28, 0x6F	; 111
    10f2:	df 4f       	sbci	r29, 0xFF	; 255
    10f4:	88 80       	ld	r8, Y
    10f6:	99 80       	ldd	r9, Y+1	; 0x01
    10f8:	c1 59       	subi	r28, 0x91	; 145
    10fa:	d0 40       	sbci	r29, 0x00	; 0
    10fc:	bf ef       	ldi	r27, 0xFF	; 255
    10fe:	21 ee       	ldi	r18, 0xE1	; 225
    1100:	34 e0       	ldi	r19, 0x04	; 4
    1102:	b1 50       	subi	r27, 0x01	; 1
    1104:	20 40       	sbci	r18, 0x00	; 0
    1106:	30 40       	sbci	r19, 0x00	; 0
    1108:	e1 f7       	brne	.-8      	; 0x1102 <main+0x2b8>
    110a:	00 c0       	rjmp	.+0      	; 0x110c <main+0x2c2>
    110c:	00 00       	nop
    110e:	0f b6       	in	r0, 0x3f	; 63
    1110:	f8 94       	cli
    1112:	de bf       	out	0x3e, r29	; 62
    1114:	0f be       	out	0x3f, r0	; 63
    1116:	cd bf       	out	0x3d, r28	; 61
    1118:	4e 9b       	sbis	0x09, 6	; 9
    111a:	6b c0       	rjmp	.+214    	; 0x11f2 <main+0x3a8>
    111c:	01 15       	cp	r16, r1
    111e:	11 05       	cpc	r17, r1
    1120:	11 f0       	breq	.+4      	; 0x1126 <main+0x2dc>
    1122:	04 50       	subi	r16, 0x04	; 4
    1124:	11 09       	sbc	r17, r1
    1126:	1c 83       	std	Y+4, r17	; 0x04
    1128:	0b 83       	std	Y+3, r16	; 0x03
    112a:	7e 82       	std	Y+6, r7	; 0x06
    112c:	6d 82       	std	Y+5, r6	; 0x05
    112e:	ba 86       	std	Y+10, r11	; 0x0a
    1130:	a9 86       	std	Y+9, r10	; 0x09
    1132:	ed 96       	adiw	r28, 0x3d	; 61
    1134:	df ae       	std	Y+63, r13	; 0x3f
    1136:	ce ae       	std	Y+62, r12	; 0x3e
    1138:	ed 97       	sbiw	r28, 0x3d	; 61
    113a:	c3 57       	subi	r28, 0x73	; 115
    113c:	df 4f       	sbci	r29, 0xFF	; 255
    113e:	f9 82       	std	Y+1, r15	; 0x01
    1140:	e8 82       	st	Y, r14
    1142:	cd 58       	subi	r28, 0x8D	; 141
    1144:	d0 40       	sbci	r29, 0x00	; 0
    1146:	c1 57       	subi	r28, 0x71	; 113
    1148:	df 4f       	sbci	r29, 0xFF	; 255
    114a:	59 82       	std	Y+1, r5	; 0x01
    114c:	48 82       	st	Y, r4
    114e:	cf 58       	subi	r28, 0x8F	; 143
    1150:	d0 40       	sbci	r29, 0x00	; 0
    1152:	cf 56       	subi	r28, 0x6F	; 111
    1154:	df 4f       	sbci	r29, 0xFF	; 255
    1156:	99 82       	std	Y+1, r9	; 0x01
    1158:	88 82       	st	Y, r8
    115a:	c1 59       	subi	r28, 0x91	; 145
    115c:	d0 40       	sbci	r29, 0x00	; 0
    115e:	ad b7       	in	r26, 0x3d	; 61
    1160:	be b7       	in	r27, 0x3e	; 62
    1162:	a2 59       	subi	r26, 0x92	; 146
    1164:	b1 09       	sbc	r27, r1
    1166:	0f b6       	in	r0, 0x3f	; 63
    1168:	f8 94       	cli
    116a:	be bf       	out	0x3e, r27	; 62
    116c:	0f be       	out	0x3f, r0	; 63
    116e:	ad bf       	out	0x3d, r26	; 61
    1170:	11 96       	adiw	r26, 0x01	; 1
    1172:	82 e9       	ldi	r24, 0x92	; 146
    1174:	fe 01       	movw	r30, r28
    1176:	31 96       	adiw	r30, 0x01	; 1
    1178:	01 90       	ld	r0, Z+
    117a:	0d 92       	st	X+, r0
    117c:	8a 95       	dec	r24
    117e:	e1 f7       	brne	.-8      	; 0x1178 <main+0x32e>
    1180:	ce 01       	movw	r24, r28
    1182:	8e 55       	subi	r24, 0x5E	; 94
    1184:	9f 4f       	sbci	r25, 0xFF	; 255
    1186:	0e 94 43 01 	call	0x286	; 0x286 <desenhaTela>
    118a:	82 e9       	ldi	r24, 0x92	; 146
    118c:	fe 01       	movw	r30, r28
    118e:	ee 55       	subi	r30, 0x5E	; 94
    1190:	ff 4f       	sbci	r31, 0xFF	; 255
    1192:	de 01       	movw	r26, r28
    1194:	11 96       	adiw	r26, 0x01	; 1
    1196:	01 90       	ld	r0, Z+
    1198:	0d 92       	st	X+, r0
    119a:	8a 95       	dec	r24
    119c:	e1 f7       	brne	.-8      	; 0x1196 <main+0x34c>
    119e:	0b 81       	ldd	r16, Y+3	; 0x03
    11a0:	1c 81       	ldd	r17, Y+4	; 0x04
    11a2:	6d 80       	ldd	r6, Y+5	; 0x05
    11a4:	7e 80       	ldd	r7, Y+6	; 0x06
    11a6:	a9 84       	ldd	r10, Y+9	; 0x09
    11a8:	ba 84       	ldd	r11, Y+10	; 0x0a
    11aa:	ed 96       	adiw	r28, 0x3d	; 61
    11ac:	ce ac       	ldd	r12, Y+62	; 0x3e
    11ae:	df ac       	ldd	r13, Y+63	; 0x3f
    11b0:	ed 97       	sbiw	r28, 0x3d	; 61
    11b2:	c3 57       	subi	r28, 0x73	; 115
    11b4:	df 4f       	sbci	r29, 0xFF	; 255
    11b6:	e8 80       	ld	r14, Y
    11b8:	f9 80       	ldd	r15, Y+1	; 0x01
    11ba:	cd 58       	subi	r28, 0x8D	; 141
    11bc:	d0 40       	sbci	r29, 0x00	; 0
    11be:	c1 57       	subi	r28, 0x71	; 113
    11c0:	df 4f       	sbci	r29, 0xFF	; 255
    11c2:	48 80       	ld	r4, Y
    11c4:	59 80       	ldd	r5, Y+1	; 0x01
    11c6:	cf 58       	subi	r28, 0x8F	; 143
    11c8:	d0 40       	sbci	r29, 0x00	; 0
    11ca:	cf 56       	subi	r28, 0x6F	; 111
    11cc:	df 4f       	sbci	r29, 0xFF	; 255
    11ce:	88 80       	ld	r8, Y
    11d0:	99 80       	ldd	r9, Y+1	; 0x01
    11d2:	c1 59       	subi	r28, 0x91	; 145
    11d4:	d0 40       	sbci	r29, 0x00	; 0
    11d6:	bf ef       	ldi	r27, 0xFF	; 255
    11d8:	21 ee       	ldi	r18, 0xE1	; 225
    11da:	34 e0       	ldi	r19, 0x04	; 4
    11dc:	b1 50       	subi	r27, 0x01	; 1
    11de:	20 40       	sbci	r18, 0x00	; 0
    11e0:	30 40       	sbci	r19, 0x00	; 0
    11e2:	e1 f7       	brne	.-8      	; 0x11dc <main+0x392>
    11e4:	00 c0       	rjmp	.+0      	; 0x11e6 <main+0x39c>
    11e6:	00 00       	nop
    11e8:	0f b6       	in	r0, 0x3f	; 63
    11ea:	f8 94       	cli
    11ec:	de bf       	out	0x3e, r29	; 62
    11ee:	0f be       	out	0x3f, r0	; 63
    11f0:	cd bf       	out	0x3d, r28	; 61
    11f2:	18 9b       	sbis	0x03, 0	; 3
    11f4:	76 c0       	rjmp	.+236    	; 0x12e2 <main+0x498>
    11f6:	a1 14       	cp	r10, r1
    11f8:	b1 04       	cpc	r11, r1
    11fa:	09 f0       	breq	.+2      	; 0x11fe <main+0x3b4>
    11fc:	72 c0       	rjmp	.+228    	; 0x12e2 <main+0x498>
    11fe:	1c 83       	std	Y+4, r17	; 0x04
    1200:	0b 83       	std	Y+3, r16	; 0x03
    1202:	7e 82       	std	Y+6, r7	; 0x06
    1204:	6d 82       	std	Y+5, r6	; 0x05
    1206:	1a 86       	std	Y+10, r1	; 0x0a
    1208:	19 86       	std	Y+9, r1	; 0x09
    120a:	ed 96       	adiw	r28, 0x3d	; 61
    120c:	df ae       	std	Y+63, r13	; 0x3f
    120e:	ce ae       	std	Y+62, r12	; 0x3e
    1210:	ed 97       	sbiw	r28, 0x3d	; 61
    1212:	c3 57       	subi	r28, 0x73	; 115
    1214:	df 4f       	sbci	r29, 0xFF	; 255
    1216:	f9 82       	std	Y+1, r15	; 0x01
    1218:	e8 82       	st	Y, r14
    121a:	cd 58       	subi	r28, 0x8D	; 141
    121c:	d0 40       	sbci	r29, 0x00	; 0
    121e:	c1 57       	subi	r28, 0x71	; 113
    1220:	df 4f       	sbci	r29, 0xFF	; 255
    1222:	59 82       	std	Y+1, r5	; 0x01
    1224:	48 82       	st	Y, r4
    1226:	cf 58       	subi	r28, 0x8F	; 143
    1228:	d0 40       	sbci	r29, 0x00	; 0
    122a:	cf 56       	subi	r28, 0x6F	; 111
    122c:	df 4f       	sbci	r29, 0xFF	; 255
    122e:	99 82       	std	Y+1, r9	; 0x01
    1230:	88 82       	st	Y, r8
    1232:	c1 59       	subi	r28, 0x91	; 145
    1234:	d0 40       	sbci	r29, 0x00	; 0
    1236:	ad b7       	in	r26, 0x3d	; 61
    1238:	be b7       	in	r27, 0x3e	; 62
    123a:	a2 59       	subi	r26, 0x92	; 146
    123c:	b1 09       	sbc	r27, r1
    123e:	0f b6       	in	r0, 0x3f	; 63
    1240:	f8 94       	cli
    1242:	be bf       	out	0x3e, r27	; 62
    1244:	0f be       	out	0x3f, r0	; 63
    1246:	ad bf       	out	0x3d, r26	; 61
    1248:	11 96       	adiw	r26, 0x01	; 1
    124a:	82 e9       	ldi	r24, 0x92	; 146
    124c:	fe 01       	movw	r30, r28
    124e:	31 96       	adiw	r30, 0x01	; 1
    1250:	01 90       	ld	r0, Z+
    1252:	0d 92       	st	X+, r0
    1254:	8a 95       	dec	r24
    1256:	e1 f7       	brne	.-8      	; 0x1250 <main+0x406>
    1258:	ce 01       	movw	r24, r28
    125a:	8e 55       	subi	r24, 0x5E	; 94
    125c:	9f 4f       	sbci	r25, 0xFF	; 255
    125e:	0e 94 77 03 	call	0x6ee	; 0x6ee <tiroPlayer>
    1262:	82 e9       	ldi	r24, 0x92	; 146
    1264:	fe 01       	movw	r30, r28
    1266:	ee 55       	subi	r30, 0x5E	; 94
    1268:	ff 4f       	sbci	r31, 0xFF	; 255
    126a:	de 01       	movw	r26, r28
    126c:	11 96       	adiw	r26, 0x01	; 1
    126e:	01 90       	ld	r0, Z+
    1270:	0d 92       	st	X+, r0
    1272:	8a 95       	dec	r24
    1274:	e1 f7       	brne	.-8      	; 0x126e <main+0x424>
    1276:	0b 81       	ldd	r16, Y+3	; 0x03
    1278:	1c 81       	ldd	r17, Y+4	; 0x04
    127a:	6d 80       	ldd	r6, Y+5	; 0x05
    127c:	7e 80       	ldd	r7, Y+6	; 0x06
    127e:	a9 84       	ldd	r10, Y+9	; 0x09
    1280:	ba 84       	ldd	r11, Y+10	; 0x0a
    1282:	ed 96       	adiw	r28, 0x3d	; 61
    1284:	ce ac       	ldd	r12, Y+62	; 0x3e
    1286:	df ac       	ldd	r13, Y+63	; 0x3f
    1288:	ed 97       	sbiw	r28, 0x3d	; 61
    128a:	c3 57       	subi	r28, 0x73	; 115
    128c:	df 4f       	sbci	r29, 0xFF	; 255
    128e:	e8 80       	ld	r14, Y
    1290:	f9 80       	ldd	r15, Y+1	; 0x01
    1292:	cd 58       	subi	r28, 0x8D	; 141
    1294:	d0 40       	sbci	r29, 0x00	; 0
    1296:	c1 57       	subi	r28, 0x71	; 113
    1298:	df 4f       	sbci	r29, 0xFF	; 255
    129a:	48 80       	ld	r4, Y
    129c:	59 80       	ldd	r5, Y+1	; 0x01
    129e:	cf 58       	subi	r28, 0x8F	; 143
    12a0:	d0 40       	sbci	r29, 0x00	; 0
    12a2:	cf 56       	subi	r28, 0x6F	; 111
    12a4:	df 4f       	sbci	r29, 0xFF	; 255
    12a6:	88 80       	ld	r8, Y
    12a8:	99 80       	ldd	r9, Y+1	; 0x01
    12aa:	c1 59       	subi	r28, 0x91	; 145
    12ac:	d0 40       	sbci	r29, 0x00	; 0
    12ae:	bf ef       	ldi	r27, 0xFF	; 255
    12b0:	21 ee       	ldi	r18, 0xE1	; 225
    12b2:	34 e0       	ldi	r19, 0x04	; 4
    12b4:	b1 50       	subi	r27, 0x01	; 1
    12b6:	20 40       	sbci	r18, 0x00	; 0
    12b8:	30 40       	sbci	r19, 0x00	; 0
    12ba:	e1 f7       	brne	.-8      	; 0x12b4 <main+0x46a>
    12bc:	00 c0       	rjmp	.+0      	; 0x12be <main+0x474>
    12be:	00 00       	nop
    12c0:	81 e0       	ldi	r24, 0x01	; 1
    12c2:	90 e0       	ldi	r25, 0x00	; 0
    12c4:	a0 e0       	ldi	r26, 0x00	; 0
    12c6:	b0 e0       	ldi	r27, 0x00	; 0
    12c8:	80 93 20 01 	sts	0x0120, r24	; 0x800120 <inicioTiro>
    12cc:	90 93 21 01 	sts	0x0121, r25	; 0x800121 <inicioTiro+0x1>
    12d0:	a0 93 22 01 	sts	0x0122, r26	; 0x800122 <inicioTiro+0x2>
    12d4:	b0 93 23 01 	sts	0x0123, r27	; 0x800123 <inicioTiro+0x3>
    12d8:	0f b6       	in	r0, 0x3f	; 63
    12da:	f8 94       	cli
    12dc:	de bf       	out	0x3e, r29	; 62
    12de:	0f be       	out	0x3f, r0	; 63
    12e0:	cd bf       	out	0x3d, r28	; 61
    12e2:	80 91 20 01 	lds	r24, 0x0120	; 0x800120 <inicioTiro>
    12e6:	90 91 21 01 	lds	r25, 0x0121	; 0x800121 <inicioTiro+0x1>
    12ea:	a0 91 22 01 	lds	r26, 0x0122	; 0x800122 <inicioTiro+0x2>
    12ee:	b0 91 23 01 	lds	r27, 0x0123	; 0x800123 <inicioTiro+0x3>
    12f2:	18 16       	cp	r1, r24
    12f4:	19 06       	cpc	r1, r25
    12f6:	1a 06       	cpc	r1, r26
    12f8:	1b 06       	cpc	r1, r27
    12fa:	ec f4       	brge	.+58     	; 0x1336 <main+0x4ec>
    12fc:	40 9a       	sbi	0x08, 0	; 8
    12fe:	40 91 20 01 	lds	r20, 0x0120	; 0x800120 <inicioTiro>
    1302:	50 91 21 01 	lds	r21, 0x0121	; 0x800121 <inicioTiro+0x1>
    1306:	60 91 22 01 	lds	r22, 0x0122	; 0x800122 <inicioTiro+0x2>
    130a:	70 91 23 01 	lds	r23, 0x0123	; 0x800123 <inicioTiro+0x3>
    130e:	80 91 28 01 	lds	r24, 0x0128	; 0x800128 <tempo>
    1312:	90 91 29 01 	lds	r25, 0x0129	; 0x800129 <tempo+0x1>
    1316:	a0 91 2a 01 	lds	r26, 0x012A	; 0x80012a <tempo+0x2>
    131a:	b0 91 2b 01 	lds	r27, 0x012B	; 0x80012b <tempo+0x3>
    131e:	84 0f       	add	r24, r20
    1320:	95 1f       	adc	r25, r21
    1322:	a6 1f       	adc	r26, r22
    1324:	b7 1f       	adc	r27, r23
    1326:	80 93 20 01 	sts	0x0120, r24	; 0x800120 <inicioTiro>
    132a:	90 93 21 01 	sts	0x0121, r25	; 0x800121 <inicioTiro+0x1>
    132e:	a0 93 22 01 	sts	0x0122, r26	; 0x800122 <inicioTiro+0x2>
    1332:	b0 93 23 01 	sts	0x0123, r27	; 0x800123 <inicioTiro+0x3>
    1336:	40 91 18 01 	lds	r20, 0x0118	; 0x800118 <__data_end>
    133a:	50 91 19 01 	lds	r21, 0x0119	; 0x800119 <__data_end+0x1>
    133e:	60 91 1a 01 	lds	r22, 0x011A	; 0x80011a <__data_end+0x2>
    1342:	70 91 1b 01 	lds	r23, 0x011B	; 0x80011b <__data_end+0x3>
    1346:	80 91 24 01 	lds	r24, 0x0124	; 0x800124 <tempoInimigos>
    134a:	90 91 25 01 	lds	r25, 0x0125	; 0x800125 <tempoInimigos+0x1>
    134e:	a0 91 26 01 	lds	r26, 0x0126	; 0x800126 <tempoInimigos+0x2>
    1352:	b0 91 27 01 	lds	r27, 0x0127	; 0x800127 <tempoInimigos+0x3>
    1356:	84 0f       	add	r24, r20
    1358:	95 1f       	adc	r25, r21
    135a:	a6 1f       	adc	r26, r22
    135c:	b7 1f       	adc	r27, r23
    135e:	80 93 18 01 	sts	0x0118, r24	; 0x800118 <__data_end>
    1362:	90 93 19 01 	sts	0x0119, r25	; 0x800119 <__data_end+0x1>
    1366:	a0 93 1a 01 	sts	0x011A, r26	; 0x80011a <__data_end+0x2>
    136a:	b0 93 1b 01 	sts	0x011B, r27	; 0x80011b <__data_end+0x3>
    136e:	80 31       	cpi	r24, 0x10	; 16
    1370:	97 42       	sbci	r25, 0x27	; 39
    1372:	a1 05       	cpc	r26, r1
    1374:	b1 05       	cpc	r27, r1
    1376:	0c f4       	brge	.+2      	; 0x137a <main+0x530>
    1378:	c4 c0       	rjmp	.+392    	; 0x1502 <main+0x6b8>
    137a:	81 14       	cp	r8, r1
    137c:	91 04       	cpc	r9, r1
    137e:	09 f0       	breq	.+2      	; 0x1382 <main+0x538>
    1380:	c0 c0       	rjmp	.+384    	; 0x1502 <main+0x6b8>
    1382:	81 e0       	ldi	r24, 0x01	; 1
    1384:	90 e0       	ldi	r25, 0x00	; 0
    1386:	81 2c       	mov	r8, r1
    1388:	91 2c       	mov	r9, r1
    138a:	1c 83       	std	Y+4, r17	; 0x04
    138c:	0b 83       	std	Y+3, r16	; 0x03
    138e:	7e 82       	std	Y+6, r7	; 0x06
    1390:	6d 82       	std	Y+5, r6	; 0x05
    1392:	ba 86       	std	Y+10, r11	; 0x0a
    1394:	a9 86       	std	Y+9, r10	; 0x09
    1396:	ed 96       	adiw	r28, 0x3d	; 61
    1398:	df ae       	std	Y+63, r13	; 0x3f
    139a:	ce ae       	std	Y+62, r12	; 0x3e
    139c:	ed 97       	sbiw	r28, 0x3d	; 61
    139e:	c3 57       	subi	r28, 0x73	; 115
    13a0:	df 4f       	sbci	r29, 0xFF	; 255
    13a2:	f9 82       	std	Y+1, r15	; 0x01
    13a4:	e8 82       	st	Y, r14
    13a6:	cd 58       	subi	r28, 0x8D	; 141
    13a8:	d0 40       	sbci	r29, 0x00	; 0
    13aa:	c1 57       	subi	r28, 0x71	; 113
    13ac:	df 4f       	sbci	r29, 0xFF	; 255
    13ae:	59 82       	std	Y+1, r5	; 0x01
    13b0:	48 82       	st	Y, r4
    13b2:	cf 58       	subi	r28, 0x8F	; 143
    13b4:	d0 40       	sbci	r29, 0x00	; 0
    13b6:	cf 56       	subi	r28, 0x6F	; 111
    13b8:	df 4f       	sbci	r29, 0xFF	; 255
    13ba:	99 83       	std	Y+1, r25	; 0x01
    13bc:	88 83       	st	Y, r24
    13be:	c1 59       	subi	r28, 0x91	; 145
    13c0:	d0 40       	sbci	r29, 0x00	; 0
    13c2:	8c 14       	cp	r8, r12
    13c4:	9d 04       	cpc	r9, r13
    13c6:	0c f0       	brlt	.+2      	; 0x13ca <main+0x580>
    13c8:	49 c0       	rjmp	.+146    	; 0x145c <main+0x612>
    13ca:	9f 92       	push	r9
    13cc:	8f 92       	push	r8
    13ce:	8d b7       	in	r24, 0x3d	; 61
    13d0:	9e b7       	in	r25, 0x3e	; 62
    13d2:	82 59       	subi	r24, 0x92	; 146
    13d4:	91 09       	sbc	r25, r1
    13d6:	0f b6       	in	r0, 0x3f	; 63
    13d8:	f8 94       	cli
    13da:	9e bf       	out	0x3e, r25	; 62
    13dc:	0f be       	out	0x3f, r0	; 63
    13de:	8d bf       	out	0x3d, r24	; 61
    13e0:	ad b7       	in	r26, 0x3d	; 61
    13e2:	be b7       	in	r27, 0x3e	; 62
    13e4:	11 96       	adiw	r26, 0x01	; 1
    13e6:	82 e9       	ldi	r24, 0x92	; 146
    13e8:	fe 01       	movw	r30, r28
    13ea:	31 96       	adiw	r30, 0x01	; 1
    13ec:	01 90       	ld	r0, Z+
    13ee:	0d 92       	st	X+, r0
    13f0:	8a 95       	dec	r24
    13f2:	e1 f7       	brne	.-8      	; 0x13ec <main+0x5a2>
    13f4:	ce 01       	movw	r24, r28
    13f6:	8e 55       	subi	r24, 0x5E	; 94
    13f8:	9f 4f       	sbci	r25, 0xFF	; 255
    13fa:	0e 94 b4 03 	call	0x768	; 0x768 <tiroInimigos>
    13fe:	82 e9       	ldi	r24, 0x92	; 146
    1400:	fe 01       	movw	r30, r28
    1402:	ee 55       	subi	r30, 0x5E	; 94
    1404:	ff 4f       	sbci	r31, 0xFF	; 255
    1406:	de 01       	movw	r26, r28
    1408:	11 96       	adiw	r26, 0x01	; 1
    140a:	01 90       	ld	r0, Z+
    140c:	0d 92       	st	X+, r0
    140e:	8a 95       	dec	r24
    1410:	e1 f7       	brne	.-8      	; 0x140a <main+0x5c0>
    1412:	0b 81       	ldd	r16, Y+3	; 0x03
    1414:	1c 81       	ldd	r17, Y+4	; 0x04
    1416:	6d 80       	ldd	r6, Y+5	; 0x05
    1418:	7e 80       	ldd	r7, Y+6	; 0x06
    141a:	a9 84       	ldd	r10, Y+9	; 0x09
    141c:	ba 84       	ldd	r11, Y+10	; 0x0a
    141e:	ed 96       	adiw	r28, 0x3d	; 61
    1420:	ce ac       	ldd	r12, Y+62	; 0x3e
    1422:	df ac       	ldd	r13, Y+63	; 0x3f
    1424:	ed 97       	sbiw	r28, 0x3d	; 61
    1426:	c3 57       	subi	r28, 0x73	; 115
    1428:	df 4f       	sbci	r29, 0xFF	; 255
    142a:	e8 80       	ld	r14, Y
    142c:	f9 80       	ldd	r15, Y+1	; 0x01
    142e:	cd 58       	subi	r28, 0x8D	; 141
    1430:	d0 40       	sbci	r29, 0x00	; 0
    1432:	c1 57       	subi	r28, 0x71	; 113
    1434:	df 4f       	sbci	r29, 0xFF	; 255
    1436:	48 80       	ld	r4, Y
    1438:	59 80       	ldd	r5, Y+1	; 0x01
    143a:	cf 58       	subi	r28, 0x8F	; 143
    143c:	d0 40       	sbci	r29, 0x00	; 0
    143e:	cf 56       	subi	r28, 0x6F	; 111
    1440:	df 4f       	sbci	r29, 0xFF	; 255
    1442:	88 81       	ld	r24, Y
    1444:	99 81       	ldd	r25, Y+1	; 0x01
    1446:	c1 59       	subi	r28, 0x91	; 145
    1448:	d0 40       	sbci	r29, 0x00	; 0
    144a:	af ef       	ldi	r26, 0xFF	; 255
    144c:	8a 1a       	sub	r8, r26
    144e:	9a 0a       	sbc	r9, r26
    1450:	0f b6       	in	r0, 0x3f	; 63
    1452:	f8 94       	cli
    1454:	de bf       	out	0x3e, r29	; 62
    1456:	0f be       	out	0x3f, r0	; 63
    1458:	cd bf       	out	0x3d, r28	; 61
    145a:	97 cf       	rjmp	.-210    	; 0x138a <main+0x540>
    145c:	8d b7       	in	r24, 0x3d	; 61
    145e:	9e b7       	in	r25, 0x3e	; 62
    1460:	82 59       	subi	r24, 0x92	; 146
    1462:	91 09       	sbc	r25, r1
    1464:	0f b6       	in	r0, 0x3f	; 63
    1466:	f8 94       	cli
    1468:	9e bf       	out	0x3e, r25	; 62
    146a:	0f be       	out	0x3f, r0	; 63
    146c:	8d bf       	out	0x3d, r24	; 61
    146e:	ad b7       	in	r26, 0x3d	; 61
    1470:	be b7       	in	r27, 0x3e	; 62
    1472:	11 96       	adiw	r26, 0x01	; 1
    1474:	82 e9       	ldi	r24, 0x92	; 146
    1476:	fe 01       	movw	r30, r28
    1478:	31 96       	adiw	r30, 0x01	; 1
    147a:	01 90       	ld	r0, Z+
    147c:	0d 92       	st	X+, r0
    147e:	8a 95       	dec	r24
    1480:	e1 f7       	brne	.-8      	; 0x147a <main+0x630>
    1482:	ce 01       	movw	r24, r28
    1484:	8e 55       	subi	r24, 0x5E	; 94
    1486:	9f 4f       	sbci	r25, 0xFF	; 255
    1488:	0e 94 43 01 	call	0x286	; 0x286 <desenhaTela>
    148c:	82 e9       	ldi	r24, 0x92	; 146
    148e:	fe 01       	movw	r30, r28
    1490:	ee 55       	subi	r30, 0x5E	; 94
    1492:	ff 4f       	sbci	r31, 0xFF	; 255
    1494:	de 01       	movw	r26, r28
    1496:	11 96       	adiw	r26, 0x01	; 1
    1498:	01 90       	ld	r0, Z+
    149a:	0d 92       	st	X+, r0
    149c:	8a 95       	dec	r24
    149e:	e1 f7       	brne	.-8      	; 0x1498 <main+0x64e>
    14a0:	0b 81       	ldd	r16, Y+3	; 0x03
    14a2:	1c 81       	ldd	r17, Y+4	; 0x04
    14a4:	6d 80       	ldd	r6, Y+5	; 0x05
    14a6:	7e 80       	ldd	r7, Y+6	; 0x06
    14a8:	a9 84       	ldd	r10, Y+9	; 0x09
    14aa:	ba 84       	ldd	r11, Y+10	; 0x0a
    14ac:	ed 96       	adiw	r28, 0x3d	; 61
    14ae:	ce ac       	ldd	r12, Y+62	; 0x3e
    14b0:	df ac       	ldd	r13, Y+63	; 0x3f
    14b2:	ed 97       	sbiw	r28, 0x3d	; 61
    14b4:	c3 57       	subi	r28, 0x73	; 115
    14b6:	df 4f       	sbci	r29, 0xFF	; 255
    14b8:	e8 80       	ld	r14, Y
    14ba:	f9 80       	ldd	r15, Y+1	; 0x01
    14bc:	cd 58       	subi	r28, 0x8D	; 141
    14be:	d0 40       	sbci	r29, 0x00	; 0
    14c0:	c1 57       	subi	r28, 0x71	; 113
    14c2:	df 4f       	sbci	r29, 0xFF	; 255
    14c4:	48 80       	ld	r4, Y
    14c6:	59 80       	ldd	r5, Y+1	; 0x01
    14c8:	cf 58       	subi	r28, 0x8F	; 143
    14ca:	d0 40       	sbci	r29, 0x00	; 0
    14cc:	cf 56       	subi	r28, 0x6F	; 111
    14ce:	df 4f       	sbci	r29, 0xFF	; 255
    14d0:	88 80       	ld	r8, Y
    14d2:	99 80       	ldd	r9, Y+1	; 0x01
    14d4:	c1 59       	subi	r28, 0x91	; 145
    14d6:	d0 40       	sbci	r29, 0x00	; 0
    14d8:	10 92 18 01 	sts	0x0118, r1	; 0x800118 <__data_end>
    14dc:	10 92 19 01 	sts	0x0119, r1	; 0x800119 <__data_end+0x1>
    14e0:	10 92 1a 01 	sts	0x011A, r1	; 0x80011a <__data_end+0x2>
    14e4:	10 92 1b 01 	sts	0x011B, r1	; 0x80011b <__data_end+0x3>
    14e8:	10 92 24 01 	sts	0x0124, r1	; 0x800124 <tempoInimigos>
    14ec:	10 92 25 01 	sts	0x0125, r1	; 0x800125 <tempoInimigos+0x1>
    14f0:	10 92 26 01 	sts	0x0126, r1	; 0x800126 <tempoInimigos+0x2>
    14f4:	10 92 27 01 	sts	0x0127, r1	; 0x800127 <tempoInimigos+0x3>
    14f8:	0f b6       	in	r0, 0x3f	; 63
    14fa:	f8 94       	cli
    14fc:	de bf       	out	0x3e, r29	; 62
    14fe:	0f be       	out	0x3f, r0	; 63
    1500:	cd bf       	out	0x3d, r28	; 61
    1502:	b1 e0       	ldi	r27, 0x01	; 1
    1504:	8b 16       	cp	r8, r27
    1506:	91 04       	cpc	r9, r1
    1508:	09 f0       	breq	.+2      	; 0x150c <main+0x6c2>
    150a:	99 c0       	rjmp	.+306    	; 0x163e <main+0x7f4>
    150c:	80 91 18 01 	lds	r24, 0x0118	; 0x800118 <__data_end>
    1510:	90 91 19 01 	lds	r25, 0x0119	; 0x800119 <__data_end+0x1>
    1514:	a0 91 1a 01 	lds	r26, 0x011A	; 0x80011a <__data_end+0x2>
    1518:	b0 91 1b 01 	lds	r27, 0x011B	; 0x80011b <__data_end+0x3>
    151c:	88 3b       	cpi	r24, 0xB8	; 184
    151e:	9b 40       	sbci	r25, 0x0B	; 11
    1520:	a1 05       	cpc	r26, r1
    1522:	b1 05       	cpc	r27, r1
    1524:	0c f4       	brge	.+2      	; 0x1528 <main+0x6de>
    1526:	8b c0       	rjmp	.+278    	; 0x163e <main+0x7f4>
    1528:	fe 01       	movw	r30, r28
    152a:	31 96       	adiw	r30, 0x01	; 1
    152c:	80 e0       	ldi	r24, 0x00	; 0
    152e:	90 e0       	ldi	r25, 0x00	; 0
    1530:	4f 01       	movw	r8, r30
    1532:	3e 96       	adiw	r30, 0x0e	; 14
    1534:	8c 15       	cp	r24, r12
    1536:	9d 05       	cpc	r25, r13
    1538:	44 f4       	brge	.+16     	; 0x154a <main+0x700>
    153a:	20 81       	ld	r18, Z
    153c:	31 81       	ldd	r19, Z+1	; 0x01
    153e:	24 50       	subi	r18, 0x04	; 4
    1540:	31 09       	sbc	r19, r1
    1542:	31 83       	std	Z+1, r19	; 0x01
    1544:	20 83       	st	Z, r18
    1546:	01 96       	adiw	r24, 0x01	; 1
    1548:	f4 cf       	rjmp	.-24     	; 0x1532 <main+0x6e8>
    154a:	e1 14       	cp	r14, r1
    154c:	f1 04       	cpc	r15, r1
    154e:	31 f0       	breq	.+12     	; 0x155c <main+0x712>
    1550:	3f ef       	ldi	r19, 0xFF	; 255
    1552:	43 1a       	sub	r4, r19
    1554:	53 0a       	sbc	r5, r19
    1556:	81 e0       	ldi	r24, 0x01	; 1
    1558:	90 e0       	ldi	r25, 0x00	; 0
    155a:	14 c0       	rjmp	.+40     	; 0x1584 <main+0x73a>
    155c:	10 92 24 01 	sts	0x0124, r1	; 0x800124 <tempoInimigos>
    1560:	10 92 25 01 	sts	0x0125, r1	; 0x800125 <tempoInimigos+0x1>
    1564:	10 92 26 01 	sts	0x0126, r1	; 0x800126 <tempoInimigos+0x2>
    1568:	10 92 27 01 	sts	0x0127, r1	; 0x800127 <tempoInimigos+0x3>
    156c:	10 92 18 01 	sts	0x0118, r1	; 0x800118 <__data_end>
    1570:	10 92 19 01 	sts	0x0119, r1	; 0x800119 <__data_end+0x1>
    1574:	10 92 1a 01 	sts	0x011A, r1	; 0x80011a <__data_end+0x2>
    1578:	10 92 1b 01 	sts	0x011B, r1	; 0x80011b <__data_end+0x3>
    157c:	80 e0       	ldi	r24, 0x00	; 0
    157e:	90 e0       	ldi	r25, 0x00	; 0
    1580:	41 2c       	mov	r4, r1
    1582:	51 2c       	mov	r5, r1
    1584:	1c 83       	std	Y+4, r17	; 0x04
    1586:	0b 83       	std	Y+3, r16	; 0x03
    1588:	7e 82       	std	Y+6, r7	; 0x06
    158a:	6d 82       	std	Y+5, r6	; 0x05
    158c:	ba 86       	std	Y+10, r11	; 0x0a
    158e:	a9 86       	std	Y+9, r10	; 0x09
    1590:	ed 96       	adiw	r28, 0x3d	; 61
    1592:	df ae       	std	Y+63, r13	; 0x3f
    1594:	ce ae       	std	Y+62, r12	; 0x3e
    1596:	ed 97       	sbiw	r28, 0x3d	; 61
    1598:	c3 57       	subi	r28, 0x73	; 115
    159a:	df 4f       	sbci	r29, 0xFF	; 255
    159c:	f9 82       	std	Y+1, r15	; 0x01
    159e:	e8 82       	st	Y, r14
    15a0:	cd 58       	subi	r28, 0x8D	; 141
    15a2:	d0 40       	sbci	r29, 0x00	; 0
    15a4:	c1 57       	subi	r28, 0x71	; 113
    15a6:	df 4f       	sbci	r29, 0xFF	; 255
    15a8:	59 82       	std	Y+1, r5	; 0x01
    15aa:	48 82       	st	Y, r4
    15ac:	cf 58       	subi	r28, 0x8F	; 143
    15ae:	d0 40       	sbci	r29, 0x00	; 0
    15b0:	cf 56       	subi	r28, 0x6F	; 111
    15b2:	df 4f       	sbci	r29, 0xFF	; 255
    15b4:	99 83       	std	Y+1, r25	; 0x01
    15b6:	88 83       	st	Y, r24
    15b8:	c1 59       	subi	r28, 0x91	; 145
    15ba:	d0 40       	sbci	r29, 0x00	; 0
    15bc:	8d b7       	in	r24, 0x3d	; 61
    15be:	9e b7       	in	r25, 0x3e	; 62
    15c0:	82 59       	subi	r24, 0x92	; 146
    15c2:	91 09       	sbc	r25, r1
    15c4:	0f b6       	in	r0, 0x3f	; 63
    15c6:	f8 94       	cli
    15c8:	9e bf       	out	0x3e, r25	; 62
    15ca:	0f be       	out	0x3f, r0	; 63
    15cc:	8d bf       	out	0x3d, r24	; 61
    15ce:	ad b7       	in	r26, 0x3d	; 61
    15d0:	be b7       	in	r27, 0x3e	; 62
    15d2:	11 96       	adiw	r26, 0x01	; 1
    15d4:	82 e9       	ldi	r24, 0x92	; 146
    15d6:	f4 01       	movw	r30, r8
    15d8:	01 90       	ld	r0, Z+
    15da:	0d 92       	st	X+, r0
    15dc:	8a 95       	dec	r24
    15de:	e1 f7       	brne	.-8      	; 0x15d8 <main+0x78e>
    15e0:	ce 01       	movw	r24, r28
    15e2:	8e 55       	subi	r24, 0x5E	; 94
    15e4:	9f 4f       	sbci	r25, 0xFF	; 255
    15e6:	0e 94 43 01 	call	0x286	; 0x286 <desenhaTela>
    15ea:	82 e9       	ldi	r24, 0x92	; 146
    15ec:	fe 01       	movw	r30, r28
    15ee:	ee 55       	subi	r30, 0x5E	; 94
    15f0:	ff 4f       	sbci	r31, 0xFF	; 255
    15f2:	d4 01       	movw	r26, r8
    15f4:	01 90       	ld	r0, Z+
    15f6:	0d 92       	st	X+, r0
    15f8:	8a 95       	dec	r24
    15fa:	e1 f7       	brne	.-8      	; 0x15f4 <main+0x7aa>
    15fc:	0b 81       	ldd	r16, Y+3	; 0x03
    15fe:	1c 81       	ldd	r17, Y+4	; 0x04
    1600:	6d 80       	ldd	r6, Y+5	; 0x05
    1602:	7e 80       	ldd	r7, Y+6	; 0x06
    1604:	a9 84       	ldd	r10, Y+9	; 0x09
    1606:	ba 84       	ldd	r11, Y+10	; 0x0a
    1608:	ed 96       	adiw	r28, 0x3d	; 61
    160a:	ce ac       	ldd	r12, Y+62	; 0x3e
    160c:	df ac       	ldd	r13, Y+63	; 0x3f
    160e:	ed 97       	sbiw	r28, 0x3d	; 61
    1610:	c3 57       	subi	r28, 0x73	; 115
    1612:	df 4f       	sbci	r29, 0xFF	; 255
    1614:	e8 80       	ld	r14, Y
    1616:	f9 80       	ldd	r15, Y+1	; 0x01
    1618:	cd 58       	subi	r28, 0x8D	; 141
    161a:	d0 40       	sbci	r29, 0x00	; 0
    161c:	c1 57       	subi	r28, 0x71	; 113
    161e:	df 4f       	sbci	r29, 0xFF	; 255
    1620:	48 80       	ld	r4, Y
    1622:	59 80       	ldd	r5, Y+1	; 0x01
    1624:	cf 58       	subi	r28, 0x8F	; 143
    1626:	d0 40       	sbci	r29, 0x00	; 0
    1628:	cf 56       	subi	r28, 0x6F	; 111
    162a:	df 4f       	sbci	r29, 0xFF	; 255
    162c:	88 80       	ld	r8, Y
    162e:	99 80       	ldd	r9, Y+1	; 0x01
    1630:	c1 59       	subi	r28, 0x91	; 145
    1632:	d0 40       	sbci	r29, 0x00	; 0
    1634:	0f b6       	in	r0, 0x3f	; 63
    1636:	f8 94       	cli
    1638:	de bf       	out	0x3e, r29	; 62
    163a:	0f be       	out	0x3f, r0	; 63
    163c:	cd bf       	out	0x3d, r28	; 61
    163e:	80 91 20 01 	lds	r24, 0x0120	; 0x800120 <inicioTiro>
    1642:	90 91 21 01 	lds	r25, 0x0121	; 0x800121 <inicioTiro+0x1>
    1646:	a0 91 22 01 	lds	r26, 0x0122	; 0x800122 <inicioTiro+0x2>
    164a:	b0 91 23 01 	lds	r27, 0x0123	; 0x800123 <inicioTiro+0x3>
    164e:	88 3b       	cpi	r24, 0xB8	; 184
    1650:	9b 40       	sbci	r25, 0x0B	; 11
    1652:	a1 05       	cpc	r26, r1
    1654:	b1 05       	cpc	r27, r1
    1656:	0c f4       	brge	.+2      	; 0x165a <main+0x810>
    1658:	80 cc       	rjmp	.-1792   	; 0xf5a <main+0x110>
    165a:	31 e0       	ldi	r19, 0x01	; 1
    165c:	a3 16       	cp	r10, r19
    165e:	b1 04       	cpc	r11, r1
    1660:	09 f0       	breq	.+2      	; 0x1664 <main+0x81a>
    1662:	7b cc       	rjmp	.-1802   	; 0xf5a <main+0x110>
    1664:	84 e0       	ldi	r24, 0x04	; 4
    1666:	68 0e       	add	r6, r24
    1668:	71 1c       	adc	r7, r1
    166a:	9f ef       	ldi	r25, 0xFF	; 255
    166c:	e9 1a       	sub	r14, r25
    166e:	f9 0a       	sbc	r15, r25
    1670:	a4 e1       	ldi	r26, 0x14	; 20
    1672:	ea 16       	cp	r14, r26
    1674:	f1 04       	cpc	r15, r1
    1676:	69 f0       	breq	.+26     	; 0x1692 <main+0x848>
    1678:	81 e0       	ldi	r24, 0x01	; 1
    167a:	90 e0       	ldi	r25, 0x00	; 0
    167c:	a0 e0       	ldi	r26, 0x00	; 0
    167e:	b0 e0       	ldi	r27, 0x00	; 0
    1680:	80 93 20 01 	sts	0x0120, r24	; 0x800120 <inicioTiro>
    1684:	90 93 21 01 	sts	0x0121, r25	; 0x800121 <inicioTiro+0x1>
    1688:	a0 93 22 01 	sts	0x0122, r26	; 0x800122 <inicioTiro+0x2>
    168c:	b0 93 23 01 	sts	0x0123, r27	; 0x800123 <inicioTiro+0x3>
    1690:	14 c0       	rjmp	.+40     	; 0x16ba <main+0x870>
    1692:	10 92 20 01 	sts	0x0120, r1	; 0x800120 <inicioTiro>
    1696:	10 92 21 01 	sts	0x0121, r1	; 0x800121 <inicioTiro+0x1>
    169a:	10 92 22 01 	sts	0x0122, r1	; 0x800122 <inicioTiro+0x2>
    169e:	10 92 23 01 	sts	0x0123, r1	; 0x800123 <inicioTiro+0x3>
    16a2:	10 92 28 01 	sts	0x0128, r1	; 0x800128 <tempo>
    16a6:	10 92 29 01 	sts	0x0129, r1	; 0x800129 <tempo+0x1>
    16aa:	10 92 2a 01 	sts	0x012A, r1	; 0x80012a <tempo+0x2>
    16ae:	10 92 2b 01 	sts	0x012B, r1	; 0x80012b <tempo+0x3>
    16b2:	e1 2c       	mov	r14, r1
    16b4:	f1 2c       	mov	r15, r1
    16b6:	a1 2c       	mov	r10, r1
    16b8:	b1 2c       	mov	r11, r1
    16ba:	1c 83       	std	Y+4, r17	; 0x04
    16bc:	0b 83       	std	Y+3, r16	; 0x03
    16be:	7e 82       	std	Y+6, r7	; 0x06
    16c0:	6d 82       	std	Y+5, r6	; 0x05
    16c2:	ba 86       	std	Y+10, r11	; 0x0a
    16c4:	a9 86       	std	Y+9, r10	; 0x09
    16c6:	ed 96       	adiw	r28, 0x3d	; 61
    16c8:	df ae       	std	Y+63, r13	; 0x3f
    16ca:	ce ae       	std	Y+62, r12	; 0x3e
    16cc:	ed 97       	sbiw	r28, 0x3d	; 61
    16ce:	c3 57       	subi	r28, 0x73	; 115
    16d0:	df 4f       	sbci	r29, 0xFF	; 255
    16d2:	f9 82       	std	Y+1, r15	; 0x01
    16d4:	e8 82       	st	Y, r14
    16d6:	cd 58       	subi	r28, 0x8D	; 141
    16d8:	d0 40       	sbci	r29, 0x00	; 0
    16da:	c1 57       	subi	r28, 0x71	; 113
    16dc:	df 4f       	sbci	r29, 0xFF	; 255
    16de:	59 82       	std	Y+1, r5	; 0x01
    16e0:	48 82       	st	Y, r4
    16e2:	cf 58       	subi	r28, 0x8F	; 143
    16e4:	d0 40       	sbci	r29, 0x00	; 0
    16e6:	cf 56       	subi	r28, 0x6F	; 111
    16e8:	df 4f       	sbci	r29, 0xFF	; 255
    16ea:	99 82       	std	Y+1, r9	; 0x01
    16ec:	88 82       	st	Y, r8
    16ee:	c1 59       	subi	r28, 0x91	; 145
    16f0:	d0 40       	sbci	r29, 0x00	; 0
    16f2:	ad b7       	in	r26, 0x3d	; 61
    16f4:	be b7       	in	r27, 0x3e	; 62
    16f6:	a2 59       	subi	r26, 0x92	; 146
    16f8:	b1 09       	sbc	r27, r1
    16fa:	0f b6       	in	r0, 0x3f	; 63
    16fc:	f8 94       	cli
    16fe:	be bf       	out	0x3e, r27	; 62
    1700:	0f be       	out	0x3f, r0	; 63
    1702:	ad bf       	out	0x3d, r26	; 61
    1704:	11 96       	adiw	r26, 0x01	; 1
    1706:	82 e9       	ldi	r24, 0x92	; 146
    1708:	fe 01       	movw	r30, r28
    170a:	31 96       	adiw	r30, 0x01	; 1
    170c:	01 90       	ld	r0, Z+
    170e:	0d 92       	st	X+, r0
    1710:	8a 95       	dec	r24
    1712:	e1 f7       	brne	.-8      	; 0x170c <main+0x8c2>
    1714:	ce 01       	movw	r24, r28
    1716:	8e 55       	subi	r24, 0x5E	; 94
    1718:	9f 4f       	sbci	r25, 0xFF	; 255
    171a:	0e 94 43 01 	call	0x286	; 0x286 <desenhaTela>
    171e:	82 e9       	ldi	r24, 0x92	; 146
    1720:	fe 01       	movw	r30, r28
    1722:	ee 55       	subi	r30, 0x5E	; 94
    1724:	ff 4f       	sbci	r31, 0xFF	; 255
    1726:	de 01       	movw	r26, r28
    1728:	11 96       	adiw	r26, 0x01	; 1
    172a:	01 90       	ld	r0, Z+
    172c:	0d 92       	st	X+, r0
    172e:	8a 95       	dec	r24
    1730:	e1 f7       	brne	.-8      	; 0x172a <main+0x8e0>
    1732:	0b 81       	ldd	r16, Y+3	; 0x03
    1734:	1c 81       	ldd	r17, Y+4	; 0x04
    1736:	6d 80       	ldd	r6, Y+5	; 0x05
    1738:	7e 80       	ldd	r7, Y+6	; 0x06
    173a:	a9 84       	ldd	r10, Y+9	; 0x09
    173c:	ba 84       	ldd	r11, Y+10	; 0x0a
    173e:	ed 96       	adiw	r28, 0x3d	; 61
    1740:	ce ac       	ldd	r12, Y+62	; 0x3e
    1742:	df ac       	ldd	r13, Y+63	; 0x3f
    1744:	ed 97       	sbiw	r28, 0x3d	; 61
    1746:	c3 57       	subi	r28, 0x73	; 115
    1748:	df 4f       	sbci	r29, 0xFF	; 255
    174a:	e8 80       	ld	r14, Y
    174c:	f9 80       	ldd	r15, Y+1	; 0x01
    174e:	cd 58       	subi	r28, 0x8D	; 141
    1750:	d0 40       	sbci	r29, 0x00	; 0
    1752:	c1 57       	subi	r28, 0x71	; 113
    1754:	df 4f       	sbci	r29, 0xFF	; 255
    1756:	48 80       	ld	r4, Y
    1758:	59 80       	ldd	r5, Y+1	; 0x01
    175a:	cf 58       	subi	r28, 0x8F	; 143
    175c:	d0 40       	sbci	r29, 0x00	; 0
    175e:	cf 56       	subi	r28, 0x6F	; 111
    1760:	df 4f       	sbci	r29, 0xFF	; 255
    1762:	88 80       	ld	r8, Y
    1764:	99 80       	ldd	r9, Y+1	; 0x01
    1766:	c1 59       	subi	r28, 0x91	; 145
    1768:	d0 40       	sbci	r29, 0x00	; 0
    176a:	0f b6       	in	r0, 0x3f	; 63
    176c:	f8 94       	cli
    176e:	de bf       	out	0x3e, r29	; 62
    1770:	0f be       	out	0x3f, r0	; 63
    1772:	cd bf       	out	0x3d, r28	; 61
    1774:	f2 cb       	rjmp	.-2076   	; 0xf5a <main+0x110>

00001776 <__udivmodqi4>:
    1776:	99 1b       	sub	r25, r25
    1778:	79 e0       	ldi	r23, 0x09	; 9
    177a:	04 c0       	rjmp	.+8      	; 0x1784 <__udivmodqi4_ep>

0000177c <__udivmodqi4_loop>:
    177c:	99 1f       	adc	r25, r25
    177e:	96 17       	cp	r25, r22
    1780:	08 f0       	brcs	.+2      	; 0x1784 <__udivmodqi4_ep>
    1782:	96 1b       	sub	r25, r22

00001784 <__udivmodqi4_ep>:
    1784:	88 1f       	adc	r24, r24
    1786:	7a 95       	dec	r23
    1788:	c9 f7       	brne	.-14     	; 0x177c <__udivmodqi4_loop>
    178a:	80 95       	com	r24
    178c:	08 95       	ret

0000178e <__divmodhi4>:
    178e:	97 fb       	bst	r25, 7
    1790:	07 2e       	mov	r0, r23
    1792:	16 f4       	brtc	.+4      	; 0x1798 <__divmodhi4+0xa>
    1794:	00 94       	com	r0
    1796:	07 d0       	rcall	.+14     	; 0x17a6 <__divmodhi4_neg1>
    1798:	77 fd       	sbrc	r23, 7
    179a:	09 d0       	rcall	.+18     	; 0x17ae <__divmodhi4_neg2>
    179c:	0e 94 fa 0b 	call	0x17f4	; 0x17f4 <__udivmodhi4>
    17a0:	07 fc       	sbrc	r0, 7
    17a2:	05 d0       	rcall	.+10     	; 0x17ae <__divmodhi4_neg2>
    17a4:	3e f4       	brtc	.+14     	; 0x17b4 <__divmodhi4_exit>

000017a6 <__divmodhi4_neg1>:
    17a6:	90 95       	com	r25
    17a8:	81 95       	neg	r24
    17aa:	9f 4f       	sbci	r25, 0xFF	; 255
    17ac:	08 95       	ret

000017ae <__divmodhi4_neg2>:
    17ae:	70 95       	com	r23
    17b0:	61 95       	neg	r22
    17b2:	7f 4f       	sbci	r23, 0xFF	; 255

000017b4 <__divmodhi4_exit>:
    17b4:	08 95       	ret

000017b6 <__divmodsi4>:
    17b6:	05 2e       	mov	r0, r21
    17b8:	97 fb       	bst	r25, 7
    17ba:	1e f4       	brtc	.+6      	; 0x17c2 <__divmodsi4+0xc>
    17bc:	00 94       	com	r0
    17be:	0e 94 f2 0b 	call	0x17e4	; 0x17e4 <__negsi2>
    17c2:	57 fd       	sbrc	r21, 7
    17c4:	07 d0       	rcall	.+14     	; 0x17d4 <__divmodsi4_neg2>
    17c6:	0e 94 0e 0c 	call	0x181c	; 0x181c <__udivmodsi4>
    17ca:	07 fc       	sbrc	r0, 7
    17cc:	03 d0       	rcall	.+6      	; 0x17d4 <__divmodsi4_neg2>
    17ce:	4e f4       	brtc	.+18     	; 0x17e2 <__divmodsi4_exit>
    17d0:	0c 94 f2 0b 	jmp	0x17e4	; 0x17e4 <__negsi2>

000017d4 <__divmodsi4_neg2>:
    17d4:	50 95       	com	r21
    17d6:	40 95       	com	r20
    17d8:	30 95       	com	r19
    17da:	21 95       	neg	r18
    17dc:	3f 4f       	sbci	r19, 0xFF	; 255
    17de:	4f 4f       	sbci	r20, 0xFF	; 255
    17e0:	5f 4f       	sbci	r21, 0xFF	; 255

000017e2 <__divmodsi4_exit>:
    17e2:	08 95       	ret

000017e4 <__negsi2>:
    17e4:	90 95       	com	r25
    17e6:	80 95       	com	r24
    17e8:	70 95       	com	r23
    17ea:	61 95       	neg	r22
    17ec:	7f 4f       	sbci	r23, 0xFF	; 255
    17ee:	8f 4f       	sbci	r24, 0xFF	; 255
    17f0:	9f 4f       	sbci	r25, 0xFF	; 255
    17f2:	08 95       	ret

000017f4 <__udivmodhi4>:
    17f4:	aa 1b       	sub	r26, r26
    17f6:	bb 1b       	sub	r27, r27
    17f8:	51 e1       	ldi	r21, 0x11	; 17
    17fa:	07 c0       	rjmp	.+14     	; 0x180a <__udivmodhi4_ep>

000017fc <__udivmodhi4_loop>:
    17fc:	aa 1f       	adc	r26, r26
    17fe:	bb 1f       	adc	r27, r27
    1800:	a6 17       	cp	r26, r22
    1802:	b7 07       	cpc	r27, r23
    1804:	10 f0       	brcs	.+4      	; 0x180a <__udivmodhi4_ep>
    1806:	a6 1b       	sub	r26, r22
    1808:	b7 0b       	sbc	r27, r23

0000180a <__udivmodhi4_ep>:
    180a:	88 1f       	adc	r24, r24
    180c:	99 1f       	adc	r25, r25
    180e:	5a 95       	dec	r21
    1810:	a9 f7       	brne	.-22     	; 0x17fc <__udivmodhi4_loop>
    1812:	80 95       	com	r24
    1814:	90 95       	com	r25
    1816:	bc 01       	movw	r22, r24
    1818:	cd 01       	movw	r24, r26
    181a:	08 95       	ret

0000181c <__udivmodsi4>:
    181c:	a1 e2       	ldi	r26, 0x21	; 33
    181e:	1a 2e       	mov	r1, r26
    1820:	aa 1b       	sub	r26, r26
    1822:	bb 1b       	sub	r27, r27
    1824:	fd 01       	movw	r30, r26
    1826:	0d c0       	rjmp	.+26     	; 0x1842 <__udivmodsi4_ep>

00001828 <__udivmodsi4_loop>:
    1828:	aa 1f       	adc	r26, r26
    182a:	bb 1f       	adc	r27, r27
    182c:	ee 1f       	adc	r30, r30
    182e:	ff 1f       	adc	r31, r31
    1830:	a2 17       	cp	r26, r18
    1832:	b3 07       	cpc	r27, r19
    1834:	e4 07       	cpc	r30, r20
    1836:	f5 07       	cpc	r31, r21
    1838:	20 f0       	brcs	.+8      	; 0x1842 <__udivmodsi4_ep>
    183a:	a2 1b       	sub	r26, r18
    183c:	b3 0b       	sbc	r27, r19
    183e:	e4 0b       	sbc	r30, r20
    1840:	f5 0b       	sbc	r31, r21

00001842 <__udivmodsi4_ep>:
    1842:	66 1f       	adc	r22, r22
    1844:	77 1f       	adc	r23, r23
    1846:	88 1f       	adc	r24, r24
    1848:	99 1f       	adc	r25, r25
    184a:	1a 94       	dec	r1
    184c:	69 f7       	brne	.-38     	; 0x1828 <__udivmodsi4_loop>
    184e:	60 95       	com	r22
    1850:	70 95       	com	r23
    1852:	80 95       	com	r24
    1854:	90 95       	com	r25
    1856:	9b 01       	movw	r18, r22
    1858:	ac 01       	movw	r20, r24
    185a:	bd 01       	movw	r22, r26
    185c:	cf 01       	movw	r24, r30
    185e:	08 95       	ret

00001860 <__subsf3>:
    1860:	50 58       	subi	r21, 0x80	; 128

00001862 <__addsf3>:
    1862:	bb 27       	eor	r27, r27
    1864:	aa 27       	eor	r26, r26
    1866:	0e 94 48 0c 	call	0x1890	; 0x1890 <__addsf3x>
    186a:	0c 94 92 0d 	jmp	0x1b24	; 0x1b24 <__fp_round>
    186e:	0e 94 84 0d 	call	0x1b08	; 0x1b08 <__fp_pscA>
    1872:	38 f0       	brcs	.+14     	; 0x1882 <__addsf3+0x20>
    1874:	0e 94 8b 0d 	call	0x1b16	; 0x1b16 <__fp_pscB>
    1878:	20 f0       	brcs	.+8      	; 0x1882 <__addsf3+0x20>
    187a:	39 f4       	brne	.+14     	; 0x188a <__addsf3+0x28>
    187c:	9f 3f       	cpi	r25, 0xFF	; 255
    187e:	19 f4       	brne	.+6      	; 0x1886 <__addsf3+0x24>
    1880:	26 f4       	brtc	.+8      	; 0x188a <__addsf3+0x28>
    1882:	0c 94 81 0d 	jmp	0x1b02	; 0x1b02 <__fp_nan>
    1886:	0e f4       	brtc	.+2      	; 0x188a <__addsf3+0x28>
    1888:	e0 95       	com	r30
    188a:	e7 fb       	bst	r30, 7
    188c:	0c 94 7b 0d 	jmp	0x1af6	; 0x1af6 <__fp_inf>

00001890 <__addsf3x>:
    1890:	e9 2f       	mov	r30, r25
    1892:	0e 94 a3 0d 	call	0x1b46	; 0x1b46 <__fp_split3>
    1896:	58 f3       	brcs	.-42     	; 0x186e <__addsf3+0xc>
    1898:	ba 17       	cp	r27, r26
    189a:	62 07       	cpc	r22, r18
    189c:	73 07       	cpc	r23, r19
    189e:	84 07       	cpc	r24, r20
    18a0:	95 07       	cpc	r25, r21
    18a2:	20 f0       	brcs	.+8      	; 0x18ac <__addsf3x+0x1c>
    18a4:	79 f4       	brne	.+30     	; 0x18c4 <__addsf3x+0x34>
    18a6:	a6 f5       	brtc	.+104    	; 0x1910 <__addsf3x+0x80>
    18a8:	0c 94 c5 0d 	jmp	0x1b8a	; 0x1b8a <__fp_zero>
    18ac:	0e f4       	brtc	.+2      	; 0x18b0 <__addsf3x+0x20>
    18ae:	e0 95       	com	r30
    18b0:	0b 2e       	mov	r0, r27
    18b2:	ba 2f       	mov	r27, r26
    18b4:	a0 2d       	mov	r26, r0
    18b6:	0b 01       	movw	r0, r22
    18b8:	b9 01       	movw	r22, r18
    18ba:	90 01       	movw	r18, r0
    18bc:	0c 01       	movw	r0, r24
    18be:	ca 01       	movw	r24, r20
    18c0:	a0 01       	movw	r20, r0
    18c2:	11 24       	eor	r1, r1
    18c4:	ff 27       	eor	r31, r31
    18c6:	59 1b       	sub	r21, r25
    18c8:	99 f0       	breq	.+38     	; 0x18f0 <__addsf3x+0x60>
    18ca:	59 3f       	cpi	r21, 0xF9	; 249
    18cc:	50 f4       	brcc	.+20     	; 0x18e2 <__addsf3x+0x52>
    18ce:	50 3e       	cpi	r21, 0xE0	; 224
    18d0:	68 f1       	brcs	.+90     	; 0x192c <__addsf3x+0x9c>
    18d2:	1a 16       	cp	r1, r26
    18d4:	f0 40       	sbci	r31, 0x00	; 0
    18d6:	a2 2f       	mov	r26, r18
    18d8:	23 2f       	mov	r18, r19
    18da:	34 2f       	mov	r19, r20
    18dc:	44 27       	eor	r20, r20
    18de:	58 5f       	subi	r21, 0xF8	; 248
    18e0:	f3 cf       	rjmp	.-26     	; 0x18c8 <__addsf3x+0x38>
    18e2:	46 95       	lsr	r20
    18e4:	37 95       	ror	r19
    18e6:	27 95       	ror	r18
    18e8:	a7 95       	ror	r26
    18ea:	f0 40       	sbci	r31, 0x00	; 0
    18ec:	53 95       	inc	r21
    18ee:	c9 f7       	brne	.-14     	; 0x18e2 <__addsf3x+0x52>
    18f0:	7e f4       	brtc	.+30     	; 0x1910 <__addsf3x+0x80>
    18f2:	1f 16       	cp	r1, r31
    18f4:	ba 0b       	sbc	r27, r26
    18f6:	62 0b       	sbc	r22, r18
    18f8:	73 0b       	sbc	r23, r19
    18fa:	84 0b       	sbc	r24, r20
    18fc:	ba f0       	brmi	.+46     	; 0x192c <__addsf3x+0x9c>
    18fe:	91 50       	subi	r25, 0x01	; 1
    1900:	a1 f0       	breq	.+40     	; 0x192a <__addsf3x+0x9a>
    1902:	ff 0f       	add	r31, r31
    1904:	bb 1f       	adc	r27, r27
    1906:	66 1f       	adc	r22, r22
    1908:	77 1f       	adc	r23, r23
    190a:	88 1f       	adc	r24, r24
    190c:	c2 f7       	brpl	.-16     	; 0x18fe <__addsf3x+0x6e>
    190e:	0e c0       	rjmp	.+28     	; 0x192c <__addsf3x+0x9c>
    1910:	ba 0f       	add	r27, r26
    1912:	62 1f       	adc	r22, r18
    1914:	73 1f       	adc	r23, r19
    1916:	84 1f       	adc	r24, r20
    1918:	48 f4       	brcc	.+18     	; 0x192c <__addsf3x+0x9c>
    191a:	87 95       	ror	r24
    191c:	77 95       	ror	r23
    191e:	67 95       	ror	r22
    1920:	b7 95       	ror	r27
    1922:	f7 95       	ror	r31
    1924:	9e 3f       	cpi	r25, 0xFE	; 254
    1926:	08 f0       	brcs	.+2      	; 0x192a <__addsf3x+0x9a>
    1928:	b0 cf       	rjmp	.-160    	; 0x188a <__addsf3+0x28>
    192a:	93 95       	inc	r25
    192c:	88 0f       	add	r24, r24
    192e:	08 f0       	brcs	.+2      	; 0x1932 <__addsf3x+0xa2>
    1930:	99 27       	eor	r25, r25
    1932:	ee 0f       	add	r30, r30
    1934:	97 95       	ror	r25
    1936:	87 95       	ror	r24
    1938:	08 95       	ret

0000193a <__divsf3>:
    193a:	0e 94 b1 0c 	call	0x1962	; 0x1962 <__divsf3x>
    193e:	0c 94 92 0d 	jmp	0x1b24	; 0x1b24 <__fp_round>
    1942:	0e 94 8b 0d 	call	0x1b16	; 0x1b16 <__fp_pscB>
    1946:	58 f0       	brcs	.+22     	; 0x195e <__divsf3+0x24>
    1948:	0e 94 84 0d 	call	0x1b08	; 0x1b08 <__fp_pscA>
    194c:	40 f0       	brcs	.+16     	; 0x195e <__divsf3+0x24>
    194e:	29 f4       	brne	.+10     	; 0x195a <__divsf3+0x20>
    1950:	5f 3f       	cpi	r21, 0xFF	; 255
    1952:	29 f0       	breq	.+10     	; 0x195e <__divsf3+0x24>
    1954:	0c 94 7b 0d 	jmp	0x1af6	; 0x1af6 <__fp_inf>
    1958:	51 11       	cpse	r21, r1
    195a:	0c 94 c6 0d 	jmp	0x1b8c	; 0x1b8c <__fp_szero>
    195e:	0c 94 81 0d 	jmp	0x1b02	; 0x1b02 <__fp_nan>

00001962 <__divsf3x>:
    1962:	0e 94 a3 0d 	call	0x1b46	; 0x1b46 <__fp_split3>
    1966:	68 f3       	brcs	.-38     	; 0x1942 <__divsf3+0x8>

00001968 <__divsf3_pse>:
    1968:	99 23       	and	r25, r25
    196a:	b1 f3       	breq	.-20     	; 0x1958 <__divsf3+0x1e>
    196c:	55 23       	and	r21, r21
    196e:	91 f3       	breq	.-28     	; 0x1954 <__divsf3+0x1a>
    1970:	95 1b       	sub	r25, r21
    1972:	55 0b       	sbc	r21, r21
    1974:	bb 27       	eor	r27, r27
    1976:	aa 27       	eor	r26, r26
    1978:	62 17       	cp	r22, r18
    197a:	73 07       	cpc	r23, r19
    197c:	84 07       	cpc	r24, r20
    197e:	38 f0       	brcs	.+14     	; 0x198e <__divsf3_pse+0x26>
    1980:	9f 5f       	subi	r25, 0xFF	; 255
    1982:	5f 4f       	sbci	r21, 0xFF	; 255
    1984:	22 0f       	add	r18, r18
    1986:	33 1f       	adc	r19, r19
    1988:	44 1f       	adc	r20, r20
    198a:	aa 1f       	adc	r26, r26
    198c:	a9 f3       	breq	.-22     	; 0x1978 <__divsf3_pse+0x10>
    198e:	35 d0       	rcall	.+106    	; 0x19fa <__divsf3_pse+0x92>
    1990:	0e 2e       	mov	r0, r30
    1992:	3a f0       	brmi	.+14     	; 0x19a2 <__divsf3_pse+0x3a>
    1994:	e0 e8       	ldi	r30, 0x80	; 128
    1996:	32 d0       	rcall	.+100    	; 0x19fc <__divsf3_pse+0x94>
    1998:	91 50       	subi	r25, 0x01	; 1
    199a:	50 40       	sbci	r21, 0x00	; 0
    199c:	e6 95       	lsr	r30
    199e:	00 1c       	adc	r0, r0
    19a0:	ca f7       	brpl	.-14     	; 0x1994 <__divsf3_pse+0x2c>
    19a2:	2b d0       	rcall	.+86     	; 0x19fa <__divsf3_pse+0x92>
    19a4:	fe 2f       	mov	r31, r30
    19a6:	29 d0       	rcall	.+82     	; 0x19fa <__divsf3_pse+0x92>
    19a8:	66 0f       	add	r22, r22
    19aa:	77 1f       	adc	r23, r23
    19ac:	88 1f       	adc	r24, r24
    19ae:	bb 1f       	adc	r27, r27
    19b0:	26 17       	cp	r18, r22
    19b2:	37 07       	cpc	r19, r23
    19b4:	48 07       	cpc	r20, r24
    19b6:	ab 07       	cpc	r26, r27
    19b8:	b0 e8       	ldi	r27, 0x80	; 128
    19ba:	09 f0       	breq	.+2      	; 0x19be <__divsf3_pse+0x56>
    19bc:	bb 0b       	sbc	r27, r27
    19be:	80 2d       	mov	r24, r0
    19c0:	bf 01       	movw	r22, r30
    19c2:	ff 27       	eor	r31, r31
    19c4:	93 58       	subi	r25, 0x83	; 131
    19c6:	5f 4f       	sbci	r21, 0xFF	; 255
    19c8:	3a f0       	brmi	.+14     	; 0x19d8 <__divsf3_pse+0x70>
    19ca:	9e 3f       	cpi	r25, 0xFE	; 254
    19cc:	51 05       	cpc	r21, r1
    19ce:	78 f0       	brcs	.+30     	; 0x19ee <__divsf3_pse+0x86>
    19d0:	0c 94 7b 0d 	jmp	0x1af6	; 0x1af6 <__fp_inf>
    19d4:	0c 94 c6 0d 	jmp	0x1b8c	; 0x1b8c <__fp_szero>
    19d8:	5f 3f       	cpi	r21, 0xFF	; 255
    19da:	e4 f3       	brlt	.-8      	; 0x19d4 <__divsf3_pse+0x6c>
    19dc:	98 3e       	cpi	r25, 0xE8	; 232
    19de:	d4 f3       	brlt	.-12     	; 0x19d4 <__divsf3_pse+0x6c>
    19e0:	86 95       	lsr	r24
    19e2:	77 95       	ror	r23
    19e4:	67 95       	ror	r22
    19e6:	b7 95       	ror	r27
    19e8:	f7 95       	ror	r31
    19ea:	9f 5f       	subi	r25, 0xFF	; 255
    19ec:	c9 f7       	brne	.-14     	; 0x19e0 <__divsf3_pse+0x78>
    19ee:	88 0f       	add	r24, r24
    19f0:	91 1d       	adc	r25, r1
    19f2:	96 95       	lsr	r25
    19f4:	87 95       	ror	r24
    19f6:	97 f9       	bld	r25, 7
    19f8:	08 95       	ret
    19fa:	e1 e0       	ldi	r30, 0x01	; 1
    19fc:	66 0f       	add	r22, r22
    19fe:	77 1f       	adc	r23, r23
    1a00:	88 1f       	adc	r24, r24
    1a02:	bb 1f       	adc	r27, r27
    1a04:	62 17       	cp	r22, r18
    1a06:	73 07       	cpc	r23, r19
    1a08:	84 07       	cpc	r24, r20
    1a0a:	ba 07       	cpc	r27, r26
    1a0c:	20 f0       	brcs	.+8      	; 0x1a16 <__divsf3_pse+0xae>
    1a0e:	62 1b       	sub	r22, r18
    1a10:	73 0b       	sbc	r23, r19
    1a12:	84 0b       	sbc	r24, r20
    1a14:	ba 0b       	sbc	r27, r26
    1a16:	ee 1f       	adc	r30, r30
    1a18:	88 f7       	brcc	.-30     	; 0x19fc <__divsf3_pse+0x94>
    1a1a:	e0 95       	com	r30
    1a1c:	08 95       	ret

00001a1e <__fixunssfsi>:
    1a1e:	0e 94 ab 0d 	call	0x1b56	; 0x1b56 <__fp_splitA>
    1a22:	88 f0       	brcs	.+34     	; 0x1a46 <__fixunssfsi+0x28>
    1a24:	9f 57       	subi	r25, 0x7F	; 127
    1a26:	98 f0       	brcs	.+38     	; 0x1a4e <__fixunssfsi+0x30>
    1a28:	b9 2f       	mov	r27, r25
    1a2a:	99 27       	eor	r25, r25
    1a2c:	b7 51       	subi	r27, 0x17	; 23
    1a2e:	b0 f0       	brcs	.+44     	; 0x1a5c <__fixunssfsi+0x3e>
    1a30:	e1 f0       	breq	.+56     	; 0x1a6a <__fixunssfsi+0x4c>
    1a32:	66 0f       	add	r22, r22
    1a34:	77 1f       	adc	r23, r23
    1a36:	88 1f       	adc	r24, r24
    1a38:	99 1f       	adc	r25, r25
    1a3a:	1a f0       	brmi	.+6      	; 0x1a42 <__fixunssfsi+0x24>
    1a3c:	ba 95       	dec	r27
    1a3e:	c9 f7       	brne	.-14     	; 0x1a32 <__fixunssfsi+0x14>
    1a40:	14 c0       	rjmp	.+40     	; 0x1a6a <__fixunssfsi+0x4c>
    1a42:	b1 30       	cpi	r27, 0x01	; 1
    1a44:	91 f0       	breq	.+36     	; 0x1a6a <__fixunssfsi+0x4c>
    1a46:	0e 94 c5 0d 	call	0x1b8a	; 0x1b8a <__fp_zero>
    1a4a:	b1 e0       	ldi	r27, 0x01	; 1
    1a4c:	08 95       	ret
    1a4e:	0c 94 c5 0d 	jmp	0x1b8a	; 0x1b8a <__fp_zero>
    1a52:	67 2f       	mov	r22, r23
    1a54:	78 2f       	mov	r23, r24
    1a56:	88 27       	eor	r24, r24
    1a58:	b8 5f       	subi	r27, 0xF8	; 248
    1a5a:	39 f0       	breq	.+14     	; 0x1a6a <__fixunssfsi+0x4c>
    1a5c:	b9 3f       	cpi	r27, 0xF9	; 249
    1a5e:	cc f3       	brlt	.-14     	; 0x1a52 <__fixunssfsi+0x34>
    1a60:	86 95       	lsr	r24
    1a62:	77 95       	ror	r23
    1a64:	67 95       	ror	r22
    1a66:	b3 95       	inc	r27
    1a68:	d9 f7       	brne	.-10     	; 0x1a60 <__fixunssfsi+0x42>
    1a6a:	3e f4       	brtc	.+14     	; 0x1a7a <__fixunssfsi+0x5c>
    1a6c:	90 95       	com	r25
    1a6e:	80 95       	com	r24
    1a70:	70 95       	com	r23
    1a72:	61 95       	neg	r22
    1a74:	7f 4f       	sbci	r23, 0xFF	; 255
    1a76:	8f 4f       	sbci	r24, 0xFF	; 255
    1a78:	9f 4f       	sbci	r25, 0xFF	; 255
    1a7a:	08 95       	ret

00001a7c <__floatunsisf>:
    1a7c:	e8 94       	clt
    1a7e:	09 c0       	rjmp	.+18     	; 0x1a92 <__floatsisf+0x12>

00001a80 <__floatsisf>:
    1a80:	97 fb       	bst	r25, 7
    1a82:	3e f4       	brtc	.+14     	; 0x1a92 <__floatsisf+0x12>
    1a84:	90 95       	com	r25
    1a86:	80 95       	com	r24
    1a88:	70 95       	com	r23
    1a8a:	61 95       	neg	r22
    1a8c:	7f 4f       	sbci	r23, 0xFF	; 255
    1a8e:	8f 4f       	sbci	r24, 0xFF	; 255
    1a90:	9f 4f       	sbci	r25, 0xFF	; 255
    1a92:	99 23       	and	r25, r25
    1a94:	a9 f0       	breq	.+42     	; 0x1ac0 <__floatsisf+0x40>
    1a96:	f9 2f       	mov	r31, r25
    1a98:	96 e9       	ldi	r25, 0x96	; 150
    1a9a:	bb 27       	eor	r27, r27
    1a9c:	93 95       	inc	r25
    1a9e:	f6 95       	lsr	r31
    1aa0:	87 95       	ror	r24
    1aa2:	77 95       	ror	r23
    1aa4:	67 95       	ror	r22
    1aa6:	b7 95       	ror	r27
    1aa8:	f1 11       	cpse	r31, r1
    1aaa:	f8 cf       	rjmp	.-16     	; 0x1a9c <__floatsisf+0x1c>
    1aac:	fa f4       	brpl	.+62     	; 0x1aec <__floatsisf+0x6c>
    1aae:	bb 0f       	add	r27, r27
    1ab0:	11 f4       	brne	.+4      	; 0x1ab6 <__floatsisf+0x36>
    1ab2:	60 ff       	sbrs	r22, 0
    1ab4:	1b c0       	rjmp	.+54     	; 0x1aec <__floatsisf+0x6c>
    1ab6:	6f 5f       	subi	r22, 0xFF	; 255
    1ab8:	7f 4f       	sbci	r23, 0xFF	; 255
    1aba:	8f 4f       	sbci	r24, 0xFF	; 255
    1abc:	9f 4f       	sbci	r25, 0xFF	; 255
    1abe:	16 c0       	rjmp	.+44     	; 0x1aec <__floatsisf+0x6c>
    1ac0:	88 23       	and	r24, r24
    1ac2:	11 f0       	breq	.+4      	; 0x1ac8 <__floatsisf+0x48>
    1ac4:	96 e9       	ldi	r25, 0x96	; 150
    1ac6:	11 c0       	rjmp	.+34     	; 0x1aea <__floatsisf+0x6a>
    1ac8:	77 23       	and	r23, r23
    1aca:	21 f0       	breq	.+8      	; 0x1ad4 <__floatsisf+0x54>
    1acc:	9e e8       	ldi	r25, 0x8E	; 142
    1ace:	87 2f       	mov	r24, r23
    1ad0:	76 2f       	mov	r23, r22
    1ad2:	05 c0       	rjmp	.+10     	; 0x1ade <__floatsisf+0x5e>
    1ad4:	66 23       	and	r22, r22
    1ad6:	71 f0       	breq	.+28     	; 0x1af4 <__floatsisf+0x74>
    1ad8:	96 e8       	ldi	r25, 0x86	; 134
    1ada:	86 2f       	mov	r24, r22
    1adc:	70 e0       	ldi	r23, 0x00	; 0
    1ade:	60 e0       	ldi	r22, 0x00	; 0
    1ae0:	2a f0       	brmi	.+10     	; 0x1aec <__floatsisf+0x6c>
    1ae2:	9a 95       	dec	r25
    1ae4:	66 0f       	add	r22, r22
    1ae6:	77 1f       	adc	r23, r23
    1ae8:	88 1f       	adc	r24, r24
    1aea:	da f7       	brpl	.-10     	; 0x1ae2 <__floatsisf+0x62>
    1aec:	88 0f       	add	r24, r24
    1aee:	96 95       	lsr	r25
    1af0:	87 95       	ror	r24
    1af2:	97 f9       	bld	r25, 7
    1af4:	08 95       	ret

00001af6 <__fp_inf>:
    1af6:	97 f9       	bld	r25, 7
    1af8:	9f 67       	ori	r25, 0x7F	; 127
    1afa:	80 e8       	ldi	r24, 0x80	; 128
    1afc:	70 e0       	ldi	r23, 0x00	; 0
    1afe:	60 e0       	ldi	r22, 0x00	; 0
    1b00:	08 95       	ret

00001b02 <__fp_nan>:
    1b02:	9f ef       	ldi	r25, 0xFF	; 255
    1b04:	80 ec       	ldi	r24, 0xC0	; 192
    1b06:	08 95       	ret

00001b08 <__fp_pscA>:
    1b08:	00 24       	eor	r0, r0
    1b0a:	0a 94       	dec	r0
    1b0c:	16 16       	cp	r1, r22
    1b0e:	17 06       	cpc	r1, r23
    1b10:	18 06       	cpc	r1, r24
    1b12:	09 06       	cpc	r0, r25
    1b14:	08 95       	ret

00001b16 <__fp_pscB>:
    1b16:	00 24       	eor	r0, r0
    1b18:	0a 94       	dec	r0
    1b1a:	12 16       	cp	r1, r18
    1b1c:	13 06       	cpc	r1, r19
    1b1e:	14 06       	cpc	r1, r20
    1b20:	05 06       	cpc	r0, r21
    1b22:	08 95       	ret

00001b24 <__fp_round>:
    1b24:	09 2e       	mov	r0, r25
    1b26:	03 94       	inc	r0
    1b28:	00 0c       	add	r0, r0
    1b2a:	11 f4       	brne	.+4      	; 0x1b30 <__fp_round+0xc>
    1b2c:	88 23       	and	r24, r24
    1b2e:	52 f0       	brmi	.+20     	; 0x1b44 <__fp_round+0x20>
    1b30:	bb 0f       	add	r27, r27
    1b32:	40 f4       	brcc	.+16     	; 0x1b44 <__fp_round+0x20>
    1b34:	bf 2b       	or	r27, r31
    1b36:	11 f4       	brne	.+4      	; 0x1b3c <__fp_round+0x18>
    1b38:	60 ff       	sbrs	r22, 0
    1b3a:	04 c0       	rjmp	.+8      	; 0x1b44 <__fp_round+0x20>
    1b3c:	6f 5f       	subi	r22, 0xFF	; 255
    1b3e:	7f 4f       	sbci	r23, 0xFF	; 255
    1b40:	8f 4f       	sbci	r24, 0xFF	; 255
    1b42:	9f 4f       	sbci	r25, 0xFF	; 255
    1b44:	08 95       	ret

00001b46 <__fp_split3>:
    1b46:	57 fd       	sbrc	r21, 7
    1b48:	90 58       	subi	r25, 0x80	; 128
    1b4a:	44 0f       	add	r20, r20
    1b4c:	55 1f       	adc	r21, r21
    1b4e:	59 f0       	breq	.+22     	; 0x1b66 <__fp_splitA+0x10>
    1b50:	5f 3f       	cpi	r21, 0xFF	; 255
    1b52:	71 f0       	breq	.+28     	; 0x1b70 <__fp_splitA+0x1a>
    1b54:	47 95       	ror	r20

00001b56 <__fp_splitA>:
    1b56:	88 0f       	add	r24, r24
    1b58:	97 fb       	bst	r25, 7
    1b5a:	99 1f       	adc	r25, r25
    1b5c:	61 f0       	breq	.+24     	; 0x1b76 <__fp_splitA+0x20>
    1b5e:	9f 3f       	cpi	r25, 0xFF	; 255
    1b60:	79 f0       	breq	.+30     	; 0x1b80 <__fp_splitA+0x2a>
    1b62:	87 95       	ror	r24
    1b64:	08 95       	ret
    1b66:	12 16       	cp	r1, r18
    1b68:	13 06       	cpc	r1, r19
    1b6a:	14 06       	cpc	r1, r20
    1b6c:	55 1f       	adc	r21, r21
    1b6e:	f2 cf       	rjmp	.-28     	; 0x1b54 <__fp_split3+0xe>
    1b70:	46 95       	lsr	r20
    1b72:	f1 df       	rcall	.-30     	; 0x1b56 <__fp_splitA>
    1b74:	08 c0       	rjmp	.+16     	; 0x1b86 <__fp_splitA+0x30>
    1b76:	16 16       	cp	r1, r22
    1b78:	17 06       	cpc	r1, r23
    1b7a:	18 06       	cpc	r1, r24
    1b7c:	99 1f       	adc	r25, r25
    1b7e:	f1 cf       	rjmp	.-30     	; 0x1b62 <__fp_splitA+0xc>
    1b80:	86 95       	lsr	r24
    1b82:	71 05       	cpc	r23, r1
    1b84:	61 05       	cpc	r22, r1
    1b86:	08 94       	sec
    1b88:	08 95       	ret

00001b8a <__fp_zero>:
    1b8a:	e8 94       	clt

00001b8c <__fp_szero>:
    1b8c:	bb 27       	eor	r27, r27
    1b8e:	66 27       	eor	r22, r22
    1b90:	77 27       	eor	r23, r23
    1b92:	cb 01       	movw	r24, r22
    1b94:	97 f9       	bld	r25, 7
    1b96:	08 95       	ret

00001b98 <__gesf2>:
    1b98:	0e 94 d1 0d 	call	0x1ba2	; 0x1ba2 <__fp_cmp>
    1b9c:	08 f4       	brcc	.+2      	; 0x1ba0 <__gesf2+0x8>
    1b9e:	8f ef       	ldi	r24, 0xFF	; 255
    1ba0:	08 95       	ret

00001ba2 <__fp_cmp>:
    1ba2:	99 0f       	add	r25, r25
    1ba4:	00 08       	sbc	r0, r0
    1ba6:	55 0f       	add	r21, r21
    1ba8:	aa 0b       	sbc	r26, r26
    1baa:	e0 e8       	ldi	r30, 0x80	; 128
    1bac:	fe ef       	ldi	r31, 0xFE	; 254
    1bae:	16 16       	cp	r1, r22
    1bb0:	17 06       	cpc	r1, r23
    1bb2:	e8 07       	cpc	r30, r24
    1bb4:	f9 07       	cpc	r31, r25
    1bb6:	c0 f0       	brcs	.+48     	; 0x1be8 <__fp_cmp+0x46>
    1bb8:	12 16       	cp	r1, r18
    1bba:	13 06       	cpc	r1, r19
    1bbc:	e4 07       	cpc	r30, r20
    1bbe:	f5 07       	cpc	r31, r21
    1bc0:	98 f0       	brcs	.+38     	; 0x1be8 <__fp_cmp+0x46>
    1bc2:	62 1b       	sub	r22, r18
    1bc4:	73 0b       	sbc	r23, r19
    1bc6:	84 0b       	sbc	r24, r20
    1bc8:	95 0b       	sbc	r25, r21
    1bca:	39 f4       	brne	.+14     	; 0x1bda <__fp_cmp+0x38>
    1bcc:	0a 26       	eor	r0, r26
    1bce:	61 f0       	breq	.+24     	; 0x1be8 <__fp_cmp+0x46>
    1bd0:	23 2b       	or	r18, r19
    1bd2:	24 2b       	or	r18, r20
    1bd4:	25 2b       	or	r18, r21
    1bd6:	21 f4       	brne	.+8      	; 0x1be0 <__fp_cmp+0x3e>
    1bd8:	08 95       	ret
    1bda:	0a 26       	eor	r0, r26
    1bdc:	09 f4       	brne	.+2      	; 0x1be0 <__fp_cmp+0x3e>
    1bde:	a1 40       	sbci	r26, 0x01	; 1
    1be0:	a6 95       	lsr	r26
    1be2:	8f ef       	ldi	r24, 0xFF	; 255
    1be4:	81 1d       	adc	r24, r1
    1be6:	81 1d       	adc	r24, r1
    1be8:	08 95       	ret

00001bea <do_rand>:
    1bea:	8f 92       	push	r8
    1bec:	9f 92       	push	r9
    1bee:	af 92       	push	r10
    1bf0:	bf 92       	push	r11
    1bf2:	cf 92       	push	r12
    1bf4:	df 92       	push	r13
    1bf6:	ef 92       	push	r14
    1bf8:	ff 92       	push	r15
    1bfa:	cf 93       	push	r28
    1bfc:	df 93       	push	r29
    1bfe:	ec 01       	movw	r28, r24
    1c00:	68 81       	ld	r22, Y
    1c02:	79 81       	ldd	r23, Y+1	; 0x01
    1c04:	8a 81       	ldd	r24, Y+2	; 0x02
    1c06:	9b 81       	ldd	r25, Y+3	; 0x03
    1c08:	61 15       	cp	r22, r1
    1c0a:	71 05       	cpc	r23, r1
    1c0c:	81 05       	cpc	r24, r1
    1c0e:	91 05       	cpc	r25, r1
    1c10:	21 f4       	brne	.+8      	; 0x1c1a <do_rand+0x30>
    1c12:	64 e2       	ldi	r22, 0x24	; 36
    1c14:	79 ed       	ldi	r23, 0xD9	; 217
    1c16:	8b e5       	ldi	r24, 0x5B	; 91
    1c18:	97 e0       	ldi	r25, 0x07	; 7
    1c1a:	2d e1       	ldi	r18, 0x1D	; 29
    1c1c:	33 ef       	ldi	r19, 0xF3	; 243
    1c1e:	41 e0       	ldi	r20, 0x01	; 1
    1c20:	50 e0       	ldi	r21, 0x00	; 0
    1c22:	0e 94 db 0b 	call	0x17b6	; 0x17b6 <__divmodsi4>
    1c26:	49 01       	movw	r8, r18
    1c28:	5a 01       	movw	r10, r20
    1c2a:	9b 01       	movw	r18, r22
    1c2c:	ac 01       	movw	r20, r24
    1c2e:	a7 ea       	ldi	r26, 0xA7	; 167
    1c30:	b1 e4       	ldi	r27, 0x41	; 65
    1c32:	0e 94 5a 0e 	call	0x1cb4	; 0x1cb4 <__muluhisi3>
    1c36:	6b 01       	movw	r12, r22
    1c38:	7c 01       	movw	r14, r24
    1c3a:	ac ee       	ldi	r26, 0xEC	; 236
    1c3c:	b4 ef       	ldi	r27, 0xF4	; 244
    1c3e:	a5 01       	movw	r20, r10
    1c40:	94 01       	movw	r18, r8
    1c42:	0e 94 68 0e 	call	0x1cd0	; 0x1cd0 <__mulohisi3>
    1c46:	dc 01       	movw	r26, r24
    1c48:	cb 01       	movw	r24, r22
    1c4a:	8c 0d       	add	r24, r12
    1c4c:	9d 1d       	adc	r25, r13
    1c4e:	ae 1d       	adc	r26, r14
    1c50:	bf 1d       	adc	r27, r15
    1c52:	b7 ff       	sbrs	r27, 7
    1c54:	03 c0       	rjmp	.+6      	; 0x1c5c <do_rand+0x72>
    1c56:	01 97       	sbiw	r24, 0x01	; 1
    1c58:	a1 09       	sbc	r26, r1
    1c5a:	b0 48       	sbci	r27, 0x80	; 128
    1c5c:	88 83       	st	Y, r24
    1c5e:	99 83       	std	Y+1, r25	; 0x01
    1c60:	aa 83       	std	Y+2, r26	; 0x02
    1c62:	bb 83       	std	Y+3, r27	; 0x03
    1c64:	9f 77       	andi	r25, 0x7F	; 127
    1c66:	df 91       	pop	r29
    1c68:	cf 91       	pop	r28
    1c6a:	ff 90       	pop	r15
    1c6c:	ef 90       	pop	r14
    1c6e:	df 90       	pop	r13
    1c70:	cf 90       	pop	r12
    1c72:	bf 90       	pop	r11
    1c74:	af 90       	pop	r10
    1c76:	9f 90       	pop	r9
    1c78:	8f 90       	pop	r8
    1c7a:	08 95       	ret

00001c7c <rand_r>:
    1c7c:	0e 94 f5 0d 	call	0x1bea	; 0x1bea <do_rand>
    1c80:	08 95       	ret

00001c82 <rand>:
    1c82:	85 e0       	ldi	r24, 0x05	; 5
    1c84:	91 e0       	ldi	r25, 0x01	; 1
    1c86:	0e 94 f5 0d 	call	0x1bea	; 0x1bea <do_rand>
    1c8a:	08 95       	ret

00001c8c <srand>:
    1c8c:	a0 e0       	ldi	r26, 0x00	; 0
    1c8e:	b0 e0       	ldi	r27, 0x00	; 0
    1c90:	80 93 05 01 	sts	0x0105, r24	; 0x800105 <next>
    1c94:	90 93 06 01 	sts	0x0106, r25	; 0x800106 <next+0x1>
    1c98:	a0 93 07 01 	sts	0x0107, r26	; 0x800107 <next+0x2>
    1c9c:	b0 93 08 01 	sts	0x0108, r27	; 0x800108 <next+0x3>
    1ca0:	08 95       	ret

00001ca2 <memcpy_P>:
    1ca2:	fb 01       	movw	r30, r22
    1ca4:	dc 01       	movw	r26, r24
    1ca6:	02 c0       	rjmp	.+4      	; 0x1cac <memcpy_P+0xa>
    1ca8:	05 90       	lpm	r0, Z+
    1caa:	0d 92       	st	X+, r0
    1cac:	41 50       	subi	r20, 0x01	; 1
    1cae:	50 40       	sbci	r21, 0x00	; 0
    1cb0:	d8 f7       	brcc	.-10     	; 0x1ca8 <memcpy_P+0x6>
    1cb2:	08 95       	ret

00001cb4 <__muluhisi3>:
    1cb4:	0e 94 6d 0e 	call	0x1cda	; 0x1cda <__umulhisi3>
    1cb8:	a5 9f       	mul	r26, r21
    1cba:	90 0d       	add	r25, r0
    1cbc:	b4 9f       	mul	r27, r20
    1cbe:	90 0d       	add	r25, r0
    1cc0:	a4 9f       	mul	r26, r20
    1cc2:	80 0d       	add	r24, r0
    1cc4:	91 1d       	adc	r25, r1
    1cc6:	11 24       	eor	r1, r1
    1cc8:	08 95       	ret

00001cca <__mulshisi3>:
    1cca:	b7 ff       	sbrs	r27, 7
    1ccc:	0c 94 5a 0e 	jmp	0x1cb4	; 0x1cb4 <__muluhisi3>

00001cd0 <__mulohisi3>:
    1cd0:	0e 94 5a 0e 	call	0x1cb4	; 0x1cb4 <__muluhisi3>
    1cd4:	82 1b       	sub	r24, r18
    1cd6:	93 0b       	sbc	r25, r19
    1cd8:	08 95       	ret

00001cda <__umulhisi3>:
    1cda:	a2 9f       	mul	r26, r18
    1cdc:	b0 01       	movw	r22, r0
    1cde:	b3 9f       	mul	r27, r19
    1ce0:	c0 01       	movw	r24, r0
    1ce2:	a3 9f       	mul	r26, r19
    1ce4:	70 0d       	add	r23, r0
    1ce6:	81 1d       	adc	r24, r1
    1ce8:	11 24       	eor	r1, r1
    1cea:	91 1d       	adc	r25, r1
    1cec:	b2 9f       	mul	r27, r18
    1cee:	70 0d       	add	r23, r0
    1cf0:	81 1d       	adc	r24, r1
    1cf2:	11 24       	eor	r1, r1
    1cf4:	91 1d       	adc	r25, r1
    1cf6:	08 95       	ret

00001cf8 <_exit>:
    1cf8:	f8 94       	cli

00001cfa <__stop_program>:
    1cfa:	ff cf       	rjmp	.-2      	; 0x1cfa <__stop_program>
